
ILI9341 Display Driver.elf:     file format elf32-littlearm

Sections:
Idx Name          Size      VMA       LMA       File off  Algn
  0 .isr_vector   00000188  08000000  08000000  00010000  2**0
                  CONTENTS, ALLOC, LOAD, READONLY, DATA
  1 .text         000019f8  08000188  08000188  00010188  2**2
                  CONTENTS, ALLOC, LOAD, READONLY, CODE
  2 .rodata       00003790  08001b80  08001b80  00011b80  2**2
                  CONTENTS, ALLOC, LOAD, READONLY, DATA
  3 .ARM.extab    00000000  08005310  08005310  00015318  2**0
                  CONTENTS
  4 .ARM          00000000  08005310  08005310  00015318  2**0
                  CONTENTS
  5 .preinit_array 00000000  08005310  08005318  00015318  2**0
                  CONTENTS, ALLOC, LOAD, DATA
  6 .init_array   00000004  08005310  08005310  00015310  2**2
                  CONTENTS, ALLOC, LOAD, DATA
  7 .fini_array   00000004  08005314  08005314  00015314  2**2
                  CONTENTS, ALLOC, LOAD, DATA
  8 .data         00000000  20000000  20000000  00015318  2**0
                  CONTENTS, ALLOC, LOAD, DATA
  9 .ccmram       00000000  10000000  10000000  00015318  2**0
                  CONTENTS
 10 .bss          00000058  20000000  20000000  00020000  2**2
                  ALLOC
 11 ._user_heap_stack 00000600  20000058  20000058  00020000  2**0
                  ALLOC
 12 .ARM.attributes 00000030  00000000  00000000  00015318  2**0
                  CONTENTS, READONLY
 13 .comment      00000043  00000000  00000000  00015348  2**0
                  CONTENTS, READONLY
 14 .debug_info   00002f3c  00000000  00000000  0001538b  2**0
                  CONTENTS, READONLY, DEBUGGING, OCTETS
 15 .debug_abbrev 00000c2b  00000000  00000000  000182c7  2**0
                  CONTENTS, READONLY, DEBUGGING, OCTETS
 16 .debug_aranges 00000238  00000000  00000000  00018ef8  2**3
                  CONTENTS, READONLY, DEBUGGING, OCTETS
 17 .debug_macro  0001a51c  00000000  00000000  00019130  2**0
                  CONTENTS, READONLY, DEBUGGING, OCTETS
 18 .debug_line   00004474  00000000  00000000  0003364c  2**0
                  CONTENTS, READONLY, DEBUGGING, OCTETS
 19 .debug_str    0008ec5d  00000000  00000000  00037ac0  2**0
                  CONTENTS, READONLY, DEBUGGING, OCTETS
 20 .debug_rnglists 00000189  00000000  00000000  000c671d  2**0
                  CONTENTS, READONLY, DEBUGGING, OCTETS
 21 .debug_frame  000006dc  00000000  00000000  000c68a8  2**2
                  CONTENTS, READONLY, DEBUGGING, OCTETS
 22 .debug_line_str 00000052  00000000  00000000  000c6f84  2**0
                  CONTENTS, READONLY, DEBUGGING, OCTETS

Disassembly of section .text:

08000188 <__do_global_dtors_aux>:
 8000188:	b510      	push	{r4, lr}
 800018a:	4c05      	ldr	r4, [pc, #20]	; (80001a0 <__do_global_dtors_aux+0x18>)
 800018c:	7823      	ldrb	r3, [r4, #0]
 800018e:	b933      	cbnz	r3, 800019e <__do_global_dtors_aux+0x16>
 8000190:	4b04      	ldr	r3, [pc, #16]	; (80001a4 <__do_global_dtors_aux+0x1c>)
 8000192:	b113      	cbz	r3, 800019a <__do_global_dtors_aux+0x12>
 8000194:	4804      	ldr	r0, [pc, #16]	; (80001a8 <__do_global_dtors_aux+0x20>)
 8000196:	f3af 8000 	nop.w
 800019a:	2301      	movs	r3, #1
 800019c:	7023      	strb	r3, [r4, #0]
 800019e:	bd10      	pop	{r4, pc}
 80001a0:	20000000 	.word	0x20000000
 80001a4:	00000000 	.word	0x00000000
 80001a8:	08001b68 	.word	0x08001b68

080001ac <frame_dummy>:
 80001ac:	b508      	push	{r3, lr}
 80001ae:	4b03      	ldr	r3, [pc, #12]	; (80001bc <frame_dummy+0x10>)
 80001b0:	b11b      	cbz	r3, 80001ba <frame_dummy+0xe>
 80001b2:	4903      	ldr	r1, [pc, #12]	; (80001c0 <frame_dummy+0x14>)
 80001b4:	4803      	ldr	r0, [pc, #12]	; (80001c4 <frame_dummy+0x18>)
 80001b6:	f3af 8000 	nop.w
 80001ba:	bd08      	pop	{r3, pc}
 80001bc:	00000000 	.word	0x00000000
 80001c0:	20000004 	.word	0x20000004
 80001c4:	08001b68 	.word	0x08001b68

080001c8 <strlen>:
 80001c8:	4603      	mov	r3, r0
 80001ca:	f813 2b01 	ldrb.w	r2, [r3], #1
 80001ce:	2a00      	cmp	r2, #0
 80001d0:	d1fb      	bne.n	80001ca <strlen+0x2>
 80001d2:	1a18      	subs	r0, r3, r0
 80001d4:	3801      	subs	r0, #1
 80001d6:	4770      	bx	lr

080001d8 <lcdInit>:
 *
 * RETURN		:	void
 *
 * **************************************************************************/
void lcdInit(SPI_Handle_t *spiHandleStructure)
{
 80001d8:	b580      	push	{r7, lr}
 80001da:	b086      	sub	sp, #24
 80001dc:	af00      	add	r7, sp, #0
 80001de:	6078      	str	r0, [r7, #4]
	//Enabling SPI
	SPI_ENABLE(spiHandleStructure);
 80001e0:	687b      	ldr	r3, [r7, #4]
 80001e2:	681b      	ldr	r3, [r3, #0]
 80001e4:	681a      	ldr	r2, [r3, #0]
 80001e6:	687b      	ldr	r3, [r7, #4]
 80001e8:	681b      	ldr	r3, [r3, #0]
 80001ea:	f042 0240 	orr.w	r2, r2, #64	; 0x40
 80001ee:	601a      	str	r2, [r3, #0]

	//Intialisation Commands
	lcdReset();
 80001f0:	f000 f9cc 	bl	800058c <lcdReset>
	uint8_t params[15];
	lcdWriteCmd(spiHandleStructure,ILI9341_SWRESET);
 80001f4:	2101      	movs	r1, #1
 80001f6:	6878      	ldr	r0, [r7, #4]
 80001f8:	f000 f97a 	bl	80004f0 <lcdWriteCmd>
	delay(120);
 80001fc:	2078      	movs	r0, #120	; 0x78
 80001fe:	f001 fabb 	bl	8001778 <delay>
	lcdWriteCmd(spiHandleStructure,ILI9341_POWERB);
 8000202:	21cf      	movs	r1, #207	; 0xcf
 8000204:	6878      	ldr	r0, [r7, #4]
 8000206:	f000 f973 	bl	80004f0 <lcdWriteCmd>
	params[0] = 0x00;
 800020a:	2300      	movs	r3, #0
 800020c:	723b      	strb	r3, [r7, #8]
	params[1] = 0xD9;
 800020e:	23d9      	movs	r3, #217	; 0xd9
 8000210:	727b      	strb	r3, [r7, #9]
	params[2] = 0x30;
 8000212:	2330      	movs	r3, #48	; 0x30
 8000214:	72bb      	strb	r3, [r7, #10]
	lcdWriteData(spiHandleStructure,params, 3);
 8000216:	f107 0308 	add.w	r3, r7, #8
 800021a:	2203      	movs	r2, #3
 800021c:	4619      	mov	r1, r3
 800021e:	6878      	ldr	r0, [r7, #4]
 8000220:	f000 f98e 	bl	8000540 <lcdWriteData>

	lcdWriteCmd(spiHandleStructure,ILI9341_POWER_SEQ);
 8000224:	21ed      	movs	r1, #237	; 0xed
 8000226:	6878      	ldr	r0, [r7, #4]
 8000228:	f000 f962 	bl	80004f0 <lcdWriteCmd>
	params[0]= 0x64;
 800022c:	2364      	movs	r3, #100	; 0x64
 800022e:	723b      	strb	r3, [r7, #8]
	params[1]= 0x03;
 8000230:	2303      	movs	r3, #3
 8000232:	727b      	strb	r3, [r7, #9]
	params[2]= 0X12;
 8000234:	2312      	movs	r3, #18
 8000236:	72bb      	strb	r3, [r7, #10]
	params[3]= 0X81;
 8000238:	2381      	movs	r3, #129	; 0x81
 800023a:	72fb      	strb	r3, [r7, #11]
	lcdWriteData(spiHandleStructure,params, 4);
 800023c:	f107 0308 	add.w	r3, r7, #8
 8000240:	2204      	movs	r2, #4
 8000242:	4619      	mov	r1, r3
 8000244:	6878      	ldr	r0, [r7, #4]
 8000246:	f000 f97b 	bl	8000540 <lcdWriteData>

	lcdWriteCmd(spiHandleStructure,ILI9341_DTCA);
 800024a:	21e8      	movs	r1, #232	; 0xe8
 800024c:	6878      	ldr	r0, [r7, #4]
 800024e:	f000 f94f 	bl	80004f0 <lcdWriteCmd>
	params[0]= 0x85;
 8000252:	2385      	movs	r3, #133	; 0x85
 8000254:	723b      	strb	r3, [r7, #8]
	params[1]= 0x10;
 8000256:	2310      	movs	r3, #16
 8000258:	727b      	strb	r3, [r7, #9]
	params[2]= 0x7A;
 800025a:	237a      	movs	r3, #122	; 0x7a
 800025c:	72bb      	strb	r3, [r7, #10]
	lcdWriteData(spiHandleStructure,params, 3);
 800025e:	f107 0308 	add.w	r3, r7, #8
 8000262:	2203      	movs	r2, #3
 8000264:	4619      	mov	r1, r3
 8000266:	6878      	ldr	r0, [r7, #4]
 8000268:	f000 f96a 	bl	8000540 <lcdWriteData>

	lcdWriteCmd(spiHandleStructure,ILI9341_POWERA);
 800026c:	21cb      	movs	r1, #203	; 0xcb
 800026e:	6878      	ldr	r0, [r7, #4]
 8000270:	f000 f93e 	bl	80004f0 <lcdWriteCmd>
	params[0]= 0x39;
 8000274:	2339      	movs	r3, #57	; 0x39
 8000276:	723b      	strb	r3, [r7, #8]
	params[1]= 0x2C;
 8000278:	232c      	movs	r3, #44	; 0x2c
 800027a:	727b      	strb	r3, [r7, #9]
	params[2]= 0x00;
 800027c:	2300      	movs	r3, #0
 800027e:	72bb      	strb	r3, [r7, #10]
	params[3]= 0x34;
 8000280:	2334      	movs	r3, #52	; 0x34
 8000282:	72fb      	strb	r3, [r7, #11]
	params[4]= 0x02;
 8000284:	2302      	movs	r3, #2
 8000286:	733b      	strb	r3, [r7, #12]
	lcdWriteData(spiHandleStructure,params, 5);
 8000288:	f107 0308 	add.w	r3, r7, #8
 800028c:	2205      	movs	r2, #5
 800028e:	4619      	mov	r1, r3
 8000290:	6878      	ldr	r0, [r7, #4]
 8000292:	f000 f955 	bl	8000540 <lcdWriteData>

	lcdWriteCmd(spiHandleStructure,ILI9341_PRC);
 8000296:	21f7      	movs	r1, #247	; 0xf7
 8000298:	6878      	ldr	r0, [r7, #4]
 800029a:	f000 f929 	bl	80004f0 <lcdWriteCmd>
	params[0]= 0x20;
 800029e:	2320      	movs	r3, #32
 80002a0:	723b      	strb	r3, [r7, #8]
	lcdWriteData(spiHandleStructure,params, 1);
 80002a2:	f107 0308 	add.w	r3, r7, #8
 80002a6:	2201      	movs	r2, #1
 80002a8:	4619      	mov	r1, r3
 80002aa:	6878      	ldr	r0, [r7, #4]
 80002ac:	f000 f948 	bl	8000540 <lcdWriteData>

	lcdWriteCmd(spiHandleStructure,ILI9341_DTCB);
 80002b0:	21ea      	movs	r1, #234	; 0xea
 80002b2:	6878      	ldr	r0, [r7, #4]
 80002b4:	f000 f91c 	bl	80004f0 <lcdWriteCmd>
	params[0]= 0x00;
 80002b8:	2300      	movs	r3, #0
 80002ba:	723b      	strb	r3, [r7, #8]
	params[1]= 0x00;
 80002bc:	2300      	movs	r3, #0
 80002be:	727b      	strb	r3, [r7, #9]
	lcdWriteData(spiHandleStructure,params, 2);
 80002c0:	f107 0308 	add.w	r3, r7, #8
 80002c4:	2202      	movs	r2, #2
 80002c6:	4619      	mov	r1, r3
 80002c8:	6878      	ldr	r0, [r7, #4]
 80002ca:	f000 f939 	bl	8000540 <lcdWriteData>

	lcdWriteCmd(spiHandleStructure,ILI9341_POWER1);
 80002ce:	21c0      	movs	r1, #192	; 0xc0
 80002d0:	6878      	ldr	r0, [r7, #4]
 80002d2:	f000 f90d 	bl	80004f0 <lcdWriteCmd>
	params[0]= 0x1B;
 80002d6:	231b      	movs	r3, #27
 80002d8:	723b      	strb	r3, [r7, #8]
	lcdWriteData(spiHandleStructure,params, 1);
 80002da:	f107 0308 	add.w	r3, r7, #8
 80002de:	2201      	movs	r2, #1
 80002e0:	4619      	mov	r1, r3
 80002e2:	6878      	ldr	r0, [r7, #4]
 80002e4:	f000 f92c 	bl	8000540 <lcdWriteData>

	lcdWriteCmd(spiHandleStructure,ILI9341_POWER2);
 80002e8:	21c1      	movs	r1, #193	; 0xc1
 80002ea:	6878      	ldr	r0, [r7, #4]
 80002ec:	f000 f900 	bl	80004f0 <lcdWriteCmd>
	params[0]= 0x12;
 80002f0:	2312      	movs	r3, #18
 80002f2:	723b      	strb	r3, [r7, #8]
	lcdWriteData(spiHandleStructure,params, 1);
 80002f4:	f107 0308 	add.w	r3, r7, #8
 80002f8:	2201      	movs	r2, #1
 80002fa:	4619      	mov	r1, r3
 80002fc:	6878      	ldr	r0, [r7, #4]
 80002fe:	f000 f91f 	bl	8000540 <lcdWriteData>

	lcdWriteCmd(spiHandleStructure,ILI9341_VCOM1);
 8000302:	21c5      	movs	r1, #197	; 0xc5
 8000304:	6878      	ldr	r0, [r7, #4]
 8000306:	f000 f8f3 	bl	80004f0 <lcdWriteCmd>
	params[0]= 0x08;
 800030a:	2308      	movs	r3, #8
 800030c:	723b      	strb	r3, [r7, #8]
	params[1]= 0x26;
 800030e:	2326      	movs	r3, #38	; 0x26
 8000310:	727b      	strb	r3, [r7, #9]
	lcdWriteData(spiHandleStructure,params, 2);
 8000312:	f107 0308 	add.w	r3, r7, #8
 8000316:	2202      	movs	r2, #2
 8000318:	4619      	mov	r1, r3
 800031a:	6878      	ldr	r0, [r7, #4]
 800031c:	f000 f910 	bl	8000540 <lcdWriteData>

	lcdWriteCmd(spiHandleStructure,ILI9341_VCOM2);
 8000320:	21c7      	movs	r1, #199	; 0xc7
 8000322:	6878      	ldr	r0, [r7, #4]
 8000324:	f000 f8e4 	bl	80004f0 <lcdWriteCmd>
	params[0]= 0XB7;
 8000328:	23b7      	movs	r3, #183	; 0xb7
 800032a:	723b      	strb	r3, [r7, #8]
	lcdWriteData(spiHandleStructure,params, 1);
 800032c:	f107 0308 	add.w	r3, r7, #8
 8000330:	2201      	movs	r2, #1
 8000332:	4619      	mov	r1, r3
 8000334:	6878      	ldr	r0, [r7, #4]
 8000336:	f000 f903 	bl	8000540 <lcdWriteData>

	uint8_t m;
	m = MADCTL_MV | MADCTL_MY| MADCTL_BGR;
 800033a:	23a8      	movs	r3, #168	; 0xa8
 800033c:	75fb      	strb	r3, [r7, #23]

	lcdWriteCmd(spiHandleStructure,ILI9341_MAC);    // Memory Access Control <Landscape setting>
 800033e:	2136      	movs	r1, #54	; 0x36
 8000340:	6878      	ldr	r0, [r7, #4]
 8000342:	f000 f8d5 	bl	80004f0 <lcdWriteCmd>
	params[0]= m;
 8000346:	7dfb      	ldrb	r3, [r7, #23]
 8000348:	723b      	strb	r3, [r7, #8]
	lcdWriteData(spiHandleStructure,params, 1);
 800034a:	f107 0308 	add.w	r3, r7, #8
 800034e:	2201      	movs	r2, #1
 8000350:	4619      	mov	r1, r3
 8000352:	6878      	ldr	r0, [r7, #4]
 8000354:	f000 f8f4 	bl	8000540 <lcdWriteData>

	lcdWriteCmd(spiHandleStructure,ILI9341_PIXEL_FORMAT);
 8000358:	213a      	movs	r1, #58	; 0x3a
 800035a:	6878      	ldr	r0, [r7, #4]
 800035c:	f000 f8c8 	bl	80004f0 <lcdWriteCmd>
	params[0]= 0x55; //select RGB565
 8000360:	2355      	movs	r3, #85	; 0x55
 8000362:	723b      	strb	r3, [r7, #8]
	lcdWriteData(spiHandleStructure,params, 1);
 8000364:	f107 0308 	add.w	r3, r7, #8
 8000368:	2201      	movs	r2, #1
 800036a:	4619      	mov	r1, r3
 800036c:	6878      	ldr	r0, [r7, #4]
 800036e:	f000 f8e7 	bl	8000540 <lcdWriteData>

	lcdWriteCmd(spiHandleStructure,ILI9341_FRMCTR1);
 8000372:	21b1      	movs	r1, #177	; 0xb1
 8000374:	6878      	ldr	r0, [r7, #4]
 8000376:	f000 f8bb 	bl	80004f0 <lcdWriteCmd>
	params[0]= 0x00;
 800037a:	2300      	movs	r3, #0
 800037c:	723b      	strb	r3, [r7, #8]
	params[1]= 0x1B;//frame rate = 70
 800037e:	231b      	movs	r3, #27
 8000380:	727b      	strb	r3, [r7, #9]
	lcdWriteData(spiHandleStructure,params, 2);
 8000382:	f107 0308 	add.w	r3, r7, #8
 8000386:	2202      	movs	r2, #2
 8000388:	4619      	mov	r1, r3
 800038a:	6878      	ldr	r0, [r7, #4]
 800038c:	f000 f8d8 	bl	8000540 <lcdWriteData>

	lcdWriteCmd(spiHandleStructure,ILI9341_DFC);    // Display Function Control
 8000390:	21b6      	movs	r1, #182	; 0xb6
 8000392:	6878      	ldr	r0, [r7, #4]
 8000394:	f000 f8ac 	bl	80004f0 <lcdWriteCmd>
	params[0]= 0x0A;
 8000398:	230a      	movs	r3, #10
 800039a:	723b      	strb	r3, [r7, #8]
	params[1]= 0xA2;
 800039c:	23a2      	movs	r3, #162	; 0xa2
 800039e:	727b      	strb	r3, [r7, #9]
	lcdWriteData(spiHandleStructure,params, 2);
 80003a0:	f107 0308 	add.w	r3, r7, #8
 80003a4:	2202      	movs	r2, #2
 80003a6:	4619      	mov	r1, r3
 80003a8:	6878      	ldr	r0, [r7, #4]
 80003aa:	f000 f8c9 	bl	8000540 <lcdWriteData>

	lcdWriteCmd(spiHandleStructure,ILI9341_3GAMMA_EN);    // 3Gamma Function Disable
 80003ae:	21f2      	movs	r1, #242	; 0xf2
 80003b0:	6878      	ldr	r0, [r7, #4]
 80003b2:	f000 f89d 	bl	80004f0 <lcdWriteCmd>
	params[0]= 0x02; //LCD_WR_DATA(0x00);
 80003b6:	2302      	movs	r3, #2
 80003b8:	723b      	strb	r3, [r7, #8]
	lcdWriteData(spiHandleStructure,params, 1);
 80003ba:	f107 0308 	add.w	r3, r7, #8
 80003be:	2201      	movs	r2, #1
 80003c0:	4619      	mov	r1, r3
 80003c2:	6878      	ldr	r0, [r7, #4]
 80003c4:	f000 f8bc 	bl	8000540 <lcdWriteData>

	lcdWriteCmd(spiHandleStructure,ILI9341_GAMMA);
 80003c8:	2126      	movs	r1, #38	; 0x26
 80003ca:	6878      	ldr	r0, [r7, #4]
 80003cc:	f000 f890 	bl	80004f0 <lcdWriteCmd>
	params[0]= 0x01;
 80003d0:	2301      	movs	r3, #1
 80003d2:	723b      	strb	r3, [r7, #8]
	lcdWriteData(spiHandleStructure,params, 1);
 80003d4:	f107 0308 	add.w	r3, r7, #8
 80003d8:	2201      	movs	r2, #1
 80003da:	4619      	mov	r1, r3
 80003dc:	6878      	ldr	r0, [r7, #4]
 80003de:	f000 f8af 	bl	8000540 <lcdWriteData>

	lcdWriteCmd(spiHandleStructure,ILI9341_PGAMMA);    //Set Gamma
 80003e2:	21e0      	movs	r1, #224	; 0xe0
 80003e4:	6878      	ldr	r0, [r7, #4]
 80003e6:	f000 f883 	bl	80004f0 <lcdWriteCmd>
	params[0]= 0x0F;
 80003ea:	230f      	movs	r3, #15
 80003ec:	723b      	strb	r3, [r7, #8]
	params[1]= 0x1D;
 80003ee:	231d      	movs	r3, #29
 80003f0:	727b      	strb	r3, [r7, #9]
	params[2]= 0x1A;
 80003f2:	231a      	movs	r3, #26
 80003f4:	72bb      	strb	r3, [r7, #10]
	params[3]= 0x0A;
 80003f6:	230a      	movs	r3, #10
 80003f8:	72fb      	strb	r3, [r7, #11]
	params[4]= 0x0D;
 80003fa:	230d      	movs	r3, #13
 80003fc:	733b      	strb	r3, [r7, #12]
	params[5]= 0x07;
 80003fe:	2307      	movs	r3, #7
 8000400:	737b      	strb	r3, [r7, #13]
	params[6]= 0x49;
 8000402:	2349      	movs	r3, #73	; 0x49
 8000404:	73bb      	strb	r3, [r7, #14]
	params[7]= 0X66;
 8000406:	2366      	movs	r3, #102	; 0x66
 8000408:	73fb      	strb	r3, [r7, #15]
	params[8]= 0x3B;
 800040a:	233b      	movs	r3, #59	; 0x3b
 800040c:	743b      	strb	r3, [r7, #16]
	params[9]= 0x07;
 800040e:	2307      	movs	r3, #7
 8000410:	747b      	strb	r3, [r7, #17]
	params[10]= 0x11;
 8000412:	2311      	movs	r3, #17
 8000414:	74bb      	strb	r3, [r7, #18]
	params[11]= 0x01;
 8000416:	2301      	movs	r3, #1
 8000418:	74fb      	strb	r3, [r7, #19]
	params[12]= 0x09;
 800041a:	2309      	movs	r3, #9
 800041c:	753b      	strb	r3, [r7, #20]
	params[13]= 0x05;
 800041e:	2305      	movs	r3, #5
 8000420:	757b      	strb	r3, [r7, #21]
	params[14]= 0x04;
 8000422:	2304      	movs	r3, #4
 8000424:	75bb      	strb	r3, [r7, #22]
	lcdWriteData(spiHandleStructure,params, 15);
 8000426:	f107 0308 	add.w	r3, r7, #8
 800042a:	220f      	movs	r2, #15
 800042c:	4619      	mov	r1, r3
 800042e:	6878      	ldr	r0, [r7, #4]
 8000430:	f000 f886 	bl	8000540 <lcdWriteData>

	lcdWriteCmd(spiHandleStructure,ILI9341_NGAMMA);
 8000434:	21e1      	movs	r1, #225	; 0xe1
 8000436:	6878      	ldr	r0, [r7, #4]
 8000438:	f000 f85a 	bl	80004f0 <lcdWriteCmd>
	params[0]= 0x00;
 800043c:	2300      	movs	r3, #0
 800043e:	723b      	strb	r3, [r7, #8]
	params[1]= 0x18;
 8000440:	2318      	movs	r3, #24
 8000442:	727b      	strb	r3, [r7, #9]
	params[2]= 0x1D;
 8000444:	231d      	movs	r3, #29
 8000446:	72bb      	strb	r3, [r7, #10]
	params[3]= 0x02;
 8000448:	2302      	movs	r3, #2
 800044a:	72fb      	strb	r3, [r7, #11]
	params[4]= 0x0F;
 800044c:	230f      	movs	r3, #15
 800044e:	733b      	strb	r3, [r7, #12]
	params[5]= 0x04;
 8000450:	2304      	movs	r3, #4
 8000452:	737b      	strb	r3, [r7, #13]
	params[6]= 0x36;
 8000454:	2336      	movs	r3, #54	; 0x36
 8000456:	73bb      	strb	r3, [r7, #14]
	params[7]= 0x13;
 8000458:	2313      	movs	r3, #19
 800045a:	73fb      	strb	r3, [r7, #15]
	params[8]= 0x4C;
 800045c:	234c      	movs	r3, #76	; 0x4c
 800045e:	743b      	strb	r3, [r7, #16]
	params[9]= 0x07;
 8000460:	2307      	movs	r3, #7
 8000462:	747b      	strb	r3, [r7, #17]
	params[10]= 0x13;
 8000464:	2313      	movs	r3, #19
 8000466:	74bb      	strb	r3, [r7, #18]
	params[11]= 0x0F;
 8000468:	230f      	movs	r3, #15
 800046a:	74fb      	strb	r3, [r7, #19]
	params[12]= 0x2E;
 800046c:	232e      	movs	r3, #46	; 0x2e
 800046e:	753b      	strb	r3, [r7, #20]
	params[13]= 0x2F;
 8000470:	232f      	movs	r3, #47	; 0x2f
 8000472:	757b      	strb	r3, [r7, #21]
	params[14]= 0x05;
 8000474:	2305      	movs	r3, #5
 8000476:	75bb      	strb	r3, [r7, #22]
	lcdWriteData(spiHandleStructure,params, 15);
 8000478:	f107 0308 	add.w	r3, r7, #8
 800047c:	220f      	movs	r2, #15
 800047e:	4619      	mov	r1, r3
 8000480:	6878      	ldr	r0, [r7, #4]
 8000482:	f000 f85d 	bl	8000540 <lcdWriteData>

	lcdWriteCmd(spiHandleStructure,ILI9341_RASET); //page address set
 8000486:	212b      	movs	r1, #43	; 0x2b
 8000488:	6878      	ldr	r0, [r7, #4]
 800048a:	f000 f831 	bl	80004f0 <lcdWriteCmd>
	params[0]= 0x00;
 800048e:	2300      	movs	r3, #0
 8000490:	723b      	strb	r3, [r7, #8]
	params[1]= 0x00;
 8000492:	2300      	movs	r3, #0
 8000494:	727b      	strb	r3, [r7, #9]
	params[2]= 0x00;
 8000496:	2300      	movs	r3, #0
 8000498:	72bb      	strb	r3, [r7, #10]
	params[3]= 0xf0; //240 rows = 0xf0
 800049a:	23f0      	movs	r3, #240	; 0xf0
 800049c:	72fb      	strb	r3, [r7, #11]
	lcdWriteData(spiHandleStructure,params, 4);
 800049e:	f107 0308 	add.w	r3, r7, #8
 80004a2:	2204      	movs	r2, #4
 80004a4:	4619      	mov	r1, r3
 80004a6:	6878      	ldr	r0, [r7, #4]
 80004a8:	f000 f84a 	bl	8000540 <lcdWriteData>

	lcdWriteCmd(spiHandleStructure,ILI9341_CASET);
 80004ac:	212a      	movs	r1, #42	; 0x2a
 80004ae:	6878      	ldr	r0, [r7, #4]
 80004b0:	f000 f81e 	bl	80004f0 <lcdWriteCmd>
	params[0]= 0x00;
 80004b4:	2300      	movs	r3, #0
 80004b6:	723b      	strb	r3, [r7, #8]
	params[1]= 0x00;
 80004b8:	2300      	movs	r3, #0
 80004ba:	727b      	strb	r3, [r7, #9]
	params[2]= 0x01;
 80004bc:	2301      	movs	r3, #1
 80004be:	72bb      	strb	r3, [r7, #10]
	params[3]= 0x40; //320 columns = 0x140
 80004c0:	2340      	movs	r3, #64	; 0x40
 80004c2:	72fb      	strb	r3, [r7, #11]
	lcdWriteData(spiHandleStructure,params, 4);
 80004c4:	f107 0308 	add.w	r3, r7, #8
 80004c8:	2204      	movs	r2, #4
 80004ca:	4619      	mov	r1, r3
 80004cc:	6878      	ldr	r0, [r7, #4]
 80004ce:	f000 f837 	bl	8000540 <lcdWriteData>

	lcdWriteCmd(spiHandleStructure,ILI9341_SLEEP_OUT); //Exit Sleep
 80004d2:	2111      	movs	r1, #17
 80004d4:	6878      	ldr	r0, [r7, #4]
 80004d6:	f000 f80b 	bl	80004f0 <lcdWriteCmd>
	delay(120);
 80004da:	2078      	movs	r0, #120	; 0x78
 80004dc:	f001 f94c 	bl	8001778 <delay>
	lcdWriteCmd(spiHandleStructure,ILI9341_DISPLAY_ON); //display on
 80004e0:	2129      	movs	r1, #41	; 0x29
 80004e2:	6878      	ldr	r0, [r7, #4]
 80004e4:	f000 f804 	bl	80004f0 <lcdWriteCmd>
}
 80004e8:	bf00      	nop
 80004ea:	3718      	adds	r7, #24
 80004ec:	46bd      	mov	sp, r7
 80004ee:	bd80      	pop	{r7, pc}

080004f0 <lcdWriteCmd>:
 *
 * RETURN		:	void
 *
 * **************************************************************************/
void lcdWriteCmd(SPI_Handle_t *spiHandleStructure, uint8_t cmd)
{
 80004f0:	b580      	push	{r7, lr}
 80004f2:	b084      	sub	sp, #16
 80004f4:	af00      	add	r7, sp, #0
 80004f6:	6078      	str	r0, [r7, #4]
 80004f8:	460b      	mov	r3, r1
 80004fa:	70fb      	strb	r3, [r7, #3]
	uint8_t tempArr[] = {cmd};
 80004fc:	78fb      	ldrb	r3, [r7, #3]
 80004fe:	733b      	strb	r3, [r7, #12]

	LCD_CSX_LOW();	//To start transmission
 8000500:	4b0e      	ldr	r3, [pc, #56]	; (800053c <lcdWriteCmd+0x4c>)
 8000502:	695b      	ldr	r3, [r3, #20]
 8000504:	4a0d      	ldr	r2, [pc, #52]	; (800053c <lcdWriteCmd+0x4c>)
 8000506:	f023 0310 	bic.w	r3, r3, #16
 800050a:	6153      	str	r3, [r2, #20]
	LCD_DCX_LOW();	//To indicate Command
 800050c:	4b0b      	ldr	r3, [pc, #44]	; (800053c <lcdWriteCmd+0x4c>)
 800050e:	695b      	ldr	r3, [r3, #20]
 8000510:	4a0a      	ldr	r2, [pc, #40]	; (800053c <lcdWriteCmd+0x4c>)
 8000512:	f023 0304 	bic.w	r3, r3, #4
 8000516:	6153      	str	r3, [r2, #20]

	spiTransmit(spiHandleStructure, tempArr, 1, 100);	//Transmitting the command
 8000518:	f107 010c 	add.w	r1, r7, #12
 800051c:	2364      	movs	r3, #100	; 0x64
 800051e:	2201      	movs	r2, #1
 8000520:	6878      	ldr	r0, [r7, #4]
 8000522:	f000 fe1d 	bl	8001160 <spiTransmit>

	LCD_CSX_HIGH();//To stop transmission
 8000526:	4b05      	ldr	r3, [pc, #20]	; (800053c <lcdWriteCmd+0x4c>)
 8000528:	695b      	ldr	r3, [r3, #20]
 800052a:	4a04      	ldr	r2, [pc, #16]	; (800053c <lcdWriteCmd+0x4c>)
 800052c:	f043 0310 	orr.w	r3, r3, #16
 8000530:	6153      	str	r3, [r2, #20]
}
 8000532:	bf00      	nop
 8000534:	3710      	adds	r7, #16
 8000536:	46bd      	mov	sp, r7
 8000538:	bd80      	pop	{r7, pc}
 800053a:	bf00      	nop
 800053c:	40020000 	.word	0x40020000

08000540 <lcdWriteData>:
 *
 * RETURN		:	void
 *
 * **************************************************************************/
void lcdWriteData(SPI_Handle_t *spiHandleStructure, uint8_t *ptxData, uint16_t sizeOfData)
{
 8000540:	b580      	push	{r7, lr}
 8000542:	b084      	sub	sp, #16
 8000544:	af00      	add	r7, sp, #0
 8000546:	60f8      	str	r0, [r7, #12]
 8000548:	60b9      	str	r1, [r7, #8]
 800054a:	4613      	mov	r3, r2
 800054c:	80fb      	strh	r3, [r7, #6]
	LCD_CSX_LOW();	//To start transmission
 800054e:	4b0e      	ldr	r3, [pc, #56]	; (8000588 <lcdWriteData+0x48>)
 8000550:	695b      	ldr	r3, [r3, #20]
 8000552:	4a0d      	ldr	r2, [pc, #52]	; (8000588 <lcdWriteData+0x48>)
 8000554:	f023 0310 	bic.w	r3, r3, #16
 8000558:	6153      	str	r3, [r2, #20]
	LCD_DCX_HIGH();	//To indicate data
 800055a:	4b0b      	ldr	r3, [pc, #44]	; (8000588 <lcdWriteData+0x48>)
 800055c:	695b      	ldr	r3, [r3, #20]
 800055e:	4a0a      	ldr	r2, [pc, #40]	; (8000588 <lcdWriteData+0x48>)
 8000560:	f043 0304 	orr.w	r3, r3, #4
 8000564:	6153      	str	r3, [r2, #20]

	spiTransmit(spiHandleStructure, ptxData, sizeOfData, 100);	//Transmitting the data
 8000566:	88fa      	ldrh	r2, [r7, #6]
 8000568:	2364      	movs	r3, #100	; 0x64
 800056a:	68b9      	ldr	r1, [r7, #8]
 800056c:	68f8      	ldr	r0, [r7, #12]
 800056e:	f000 fdf7 	bl	8001160 <spiTransmit>

	LCD_CSX_HIGH();//To stop transmission
 8000572:	4b05      	ldr	r3, [pc, #20]	; (8000588 <lcdWriteData+0x48>)
 8000574:	695b      	ldr	r3, [r3, #20]
 8000576:	4a04      	ldr	r2, [pc, #16]	; (8000588 <lcdWriteData+0x48>)
 8000578:	f043 0310 	orr.w	r3, r3, #16
 800057c:	6153      	str	r3, [r2, #20]
}
 800057e:	bf00      	nop
 8000580:	3710      	adds	r7, #16
 8000582:	46bd      	mov	sp, r7
 8000584:	bd80      	pop	{r7, pc}
 8000586:	bf00      	nop
 8000588:	40020000 	.word	0x40020000

0800058c <lcdReset>:
 *
 * RETURN		:	void
 *
 * **************************************************************************/
void lcdReset(void)
{
 800058c:	b580      	push	{r7, lr}
 800058e:	af00      	add	r7, sp, #0
	LCD_RESX_LOW();
 8000590:	4b08      	ldr	r3, [pc, #32]	; (80005b4 <lcdReset+0x28>)
 8000592:	695b      	ldr	r3, [r3, #20]
 8000594:	4a07      	ldr	r2, [pc, #28]	; (80005b4 <lcdReset+0x28>)
 8000596:	f023 0308 	bic.w	r3, r3, #8
 800059a:	6153      	str	r3, [r2, #20]
	delay(50);
 800059c:	2032      	movs	r0, #50	; 0x32
 800059e:	f001 f8eb 	bl	8001778 <delay>
	LCD_RESX_HIGH();
 80005a2:	4b04      	ldr	r3, [pc, #16]	; (80005b4 <lcdReset+0x28>)
 80005a4:	695b      	ldr	r3, [r3, #20]
 80005a6:	4a03      	ldr	r2, [pc, #12]	; (80005b4 <lcdReset+0x28>)
 80005a8:	f043 0308 	orr.w	r3, r3, #8
 80005ac:	6153      	str	r3, [r2, #20]
}
 80005ae:	bf00      	nop
 80005b0:	bd80      	pop	{r7, pc}
 80005b2:	bf00      	nop
 80005b4:	40020000 	.word	0x40020000

080005b8 <lcdSetWriteArea>:
 *
 * RETURN		:	void
 *
 * **************************************************************************/
void lcdSetWriteArea(SPI_Handle_t *spiHandleStructure,uint16_t x1,uint16_t x2,uint16_t y1,uint16_t y2)
{
 80005b8:	b580      	push	{r7, lr}
 80005ba:	b086      	sub	sp, #24
 80005bc:	af00      	add	r7, sp, #0
 80005be:	60f8      	str	r0, [r7, #12]
 80005c0:	4608      	mov	r0, r1
 80005c2:	4611      	mov	r1, r2
 80005c4:	461a      	mov	r2, r3
 80005c6:	4603      	mov	r3, r0
 80005c8:	817b      	strh	r3, [r7, #10]
 80005ca:	460b      	mov	r3, r1
 80005cc:	813b      	strh	r3, [r7, #8]
 80005ce:	4613      	mov	r3, r2
 80005d0:	80fb      	strh	r3, [r7, #6]
	uint8_t param[4];
	lcdWriteCmd(spiHandleStructure,ILI9341_CASET);//column address
 80005d2:	212a      	movs	r1, #42	; 0x2a
 80005d4:	68f8      	ldr	r0, [r7, #12]
 80005d6:	f7ff ff8b 	bl	80004f0 <lcdWriteCmd>
	param[0] = (x1>>8);	//bit 15-8
 80005da:	897b      	ldrh	r3, [r7, #10]
 80005dc:	0a1b      	lsrs	r3, r3, #8
 80005de:	b29b      	uxth	r3, r3
 80005e0:	b2db      	uxtb	r3, r3
 80005e2:	753b      	strb	r3, [r7, #20]
	param[1] = (x1);	//bit 7-0
 80005e4:	897b      	ldrh	r3, [r7, #10]
 80005e6:	b2db      	uxtb	r3, r3
 80005e8:	757b      	strb	r3, [r7, #21]
	param[2] = (x2>>8); //bit 15-8
 80005ea:	893b      	ldrh	r3, [r7, #8]
 80005ec:	0a1b      	lsrs	r3, r3, #8
 80005ee:	b29b      	uxth	r3, r3
 80005f0:	b2db      	uxtb	r3, r3
 80005f2:	75bb      	strb	r3, [r7, #22]
	param[3] = (x2);	//bit 7-0
 80005f4:	893b      	ldrh	r3, [r7, #8]
 80005f6:	b2db      	uxtb	r3, r3
 80005f8:	75fb      	strb	r3, [r7, #23]
	lcdWriteData(spiHandleStructure, param, 4);
 80005fa:	f107 0314 	add.w	r3, r7, #20
 80005fe:	2204      	movs	r2, #4
 8000600:	4619      	mov	r1, r3
 8000602:	68f8      	ldr	r0, [r7, #12]
 8000604:	f7ff ff9c 	bl	8000540 <lcdWriteData>

	lcdWriteCmd(spiHandleStructure,ILI9341_RASET); //page/row address set
 8000608:	212b      	movs	r1, #43	; 0x2b
 800060a:	68f8      	ldr	r0, [r7, #12]
 800060c:	f7ff ff70 	bl	80004f0 <lcdWriteCmd>
	param[0] = (y1>>8);	//bit 15-8
 8000610:	88fb      	ldrh	r3, [r7, #6]
 8000612:	0a1b      	lsrs	r3, r3, #8
 8000614:	b29b      	uxth	r3, r3
 8000616:	b2db      	uxtb	r3, r3
 8000618:	753b      	strb	r3, [r7, #20]
	param[1] = (y1);	//bit 7-0
 800061a:	88fb      	ldrh	r3, [r7, #6]
 800061c:	b2db      	uxtb	r3, r3
 800061e:	757b      	strb	r3, [r7, #21]
	param[2] = (y2>>8);	//bit 15-8
 8000620:	8c3b      	ldrh	r3, [r7, #32]
 8000622:	0a1b      	lsrs	r3, r3, #8
 8000624:	b29b      	uxth	r3, r3
 8000626:	b2db      	uxtb	r3, r3
 8000628:	75bb      	strb	r3, [r7, #22]
	param[3] = (y2);	//bit 7-0
 800062a:	8c3b      	ldrh	r3, [r7, #32]
 800062c:	b2db      	uxtb	r3, r3
 800062e:	75fb      	strb	r3, [r7, #23]
	lcdWriteData(spiHandleStructure, param, 4);
 8000630:	f107 0314 	add.w	r3, r7, #20
 8000634:	2204      	movs	r2, #4
 8000636:	4619      	mov	r1, r3
 8000638:	68f8      	ldr	r0, [r7, #12]
 800063a:	f7ff ff81 	bl	8000540 <lcdWriteData>
}
 800063e:	bf00      	nop
 8000640:	3718      	adds	r7, #24
 8000642:	46bd      	mov	sp, r7
 8000644:	bd80      	pop	{r7, pc}
	...

08000648 <lcdWriteArea>:
 *
 * RETURN		:	void
 *
 * **************************************************************************/
void lcdWriteArea(SPI_Handle_t *spiHandleStructure,uint8_t *ptxData, uint32_t len, uint16_t x1, uint16_t x2, uint16_t y1, uint16_t y2)
{
 8000648:	b580      	push	{r7, lr}
 800064a:	b086      	sub	sp, #24
 800064c:	af02      	add	r7, sp, #8
 800064e:	60f8      	str	r0, [r7, #12]
 8000650:	60b9      	str	r1, [r7, #8]
 8000652:	607a      	str	r2, [r7, #4]
 8000654:	807b      	strh	r3, [r7, #2]
	lcdSetWriteArea(spiHandleStructure, x1, x2, y1, y2);
 8000656:	8bb8      	ldrh	r0, [r7, #28]
 8000658:	8b3a      	ldrh	r2, [r7, #24]
 800065a:	8879      	ldrh	r1, [r7, #2]
 800065c:	8c3b      	ldrh	r3, [r7, #32]
 800065e:	9300      	str	r3, [sp, #0]
 8000660:	4603      	mov	r3, r0
 8000662:	68f8      	ldr	r0, [r7, #12]
 8000664:	f7ff ffa8 	bl	80005b8 <lcdSetWriteArea>

	lcdWriteCmd(spiHandleStructure,ILI9341_GRAM);
 8000668:	212c      	movs	r1, #44	; 0x2c
 800066a:	68f8      	ldr	r0, [r7, #12]
 800066c:	f7ff ff40 	bl	80004f0 <lcdWriteCmd>

	LCD_CSX_LOW();	//To start transmission
 8000670:	4b0e      	ldr	r3, [pc, #56]	; (80006ac <lcdWriteArea+0x64>)
 8000672:	695b      	ldr	r3, [r3, #20]
 8000674:	4a0d      	ldr	r2, [pc, #52]	; (80006ac <lcdWriteArea+0x64>)
 8000676:	f023 0310 	bic.w	r3, r3, #16
 800067a:	6153      	str	r3, [r2, #20]
	LCD_DCX_HIGH();	//To indicate data
 800067c:	4b0b      	ldr	r3, [pc, #44]	; (80006ac <lcdWriteArea+0x64>)
 800067e:	695b      	ldr	r3, [r3, #20]
 8000680:	4a0a      	ldr	r2, [pc, #40]	; (80006ac <lcdWriteArea+0x64>)
 8000682:	f043 0304 	orr.w	r3, r3, #4
 8000686:	6153      	str	r3, [r2, #20]

	lcdWriteData(spiHandleStructure, ptxData, len);
 8000688:	687b      	ldr	r3, [r7, #4]
 800068a:	b29b      	uxth	r3, r3
 800068c:	461a      	mov	r2, r3
 800068e:	68b9      	ldr	r1, [r7, #8]
 8000690:	68f8      	ldr	r0, [r7, #12]
 8000692:	f7ff ff55 	bl	8000540 <lcdWriteData>

	LCD_CSX_HIGH();//To stop transmission
 8000696:	4b05      	ldr	r3, [pc, #20]	; (80006ac <lcdWriteArea+0x64>)
 8000698:	695b      	ldr	r3, [r3, #20]
 800069a:	4a04      	ldr	r2, [pc, #16]	; (80006ac <lcdWriteArea+0x64>)
 800069c:	f043 0310 	orr.w	r3, r3, #16
 80006a0:	6153      	str	r3, [r2, #20]
}
 80006a2:	bf00      	nop
 80006a4:	3710      	adds	r7, #16
 80006a6:	46bd      	mov	sp, r7
 80006a8:	bd80      	pop	{r7, pc}
 80006aa:	bf00      	nop
 80006ac:	40020000 	.word	0x40020000

080006b0 <lcdFill>:
 *
 * RETURN		:	void
 *
 * **************************************************************************/
void lcdFill(SPI_Handle_t *spiHandleStructure,uint16_t color)
{
 80006b0:	b580      	push	{r7, lr}
 80006b2:	f5ad 4d96 	sub.w	sp, sp, #19200	; 0x4b00
 80006b6:	b088      	sub	sp, #32
 80006b8:	af04      	add	r7, sp, #16
 80006ba:	f507 6331 	add.w	r3, r7, #2832	; 0xb10
 80006be:	f6a3 330c 	subw	r3, r3, #2828	; 0xb0c
 80006c2:	6018      	str	r0, [r3, #0]
 80006c4:	460a      	mov	r2, r1
 80006c6:	f507 6331 	add.w	r3, r7, #2832	; 0xb10
 80006ca:	f6a3 330e 	subw	r3, r3, #2830	; 0xb0e
 80006ce:	801a      	strh	r2, [r3, #0]
	 * 30 lines
	 * 2 values of colour per pixel
	 * so 320*30*2 = 19200
	 */
	uint8_t tempcolarr[19200];
	for(uint16_t i=0;i<19200;i++)
 80006d0:	2300      	movs	r3, #0
 80006d2:	f507 4296 	add.w	r2, r7, #19200	; 0x4b00
 80006d6:	f102 020e 	add.w	r2, r2, #14
 80006da:	8013      	strh	r3, [r2, #0]
 80006dc:	e038      	b.n	8000750 <lcdFill+0xa0>
	{
		tempcolarr[i] = color>>8;
 80006de:	f507 6331 	add.w	r3, r7, #2832	; 0xb10
 80006e2:	f6a3 330e 	subw	r3, r3, #2830	; 0xb0e
 80006e6:	881b      	ldrh	r3, [r3, #0]
 80006e8:	0a1b      	lsrs	r3, r3, #8
 80006ea:	b29a      	uxth	r2, r3
 80006ec:	f507 4396 	add.w	r3, r7, #19200	; 0x4b00
 80006f0:	f103 030e 	add.w	r3, r3, #14
 80006f4:	881b      	ldrh	r3, [r3, #0]
 80006f6:	b2d1      	uxtb	r1, r2
 80006f8:	f507 6231 	add.w	r2, r7, #2832	; 0xb10
 80006fc:	f6a2 3204 	subw	r2, r2, #2820	; 0xb04
 8000700:	54d1      	strb	r1, [r2, r3]
		tempcolarr[i+1] = color & 0xFF;
 8000702:	f507 4396 	add.w	r3, r7, #19200	; 0x4b00
 8000706:	f103 030e 	add.w	r3, r3, #14
 800070a:	881b      	ldrh	r3, [r3, #0]
 800070c:	3301      	adds	r3, #1
 800070e:	f507 6231 	add.w	r2, r7, #2832	; 0xb10
 8000712:	f6a2 320e 	subw	r2, r2, #2830	; 0xb0e
 8000716:	8812      	ldrh	r2, [r2, #0]
 8000718:	b2d1      	uxtb	r1, r2
 800071a:	f507 6231 	add.w	r2, r7, #2832	; 0xb10
 800071e:	f6a2 3204 	subw	r2, r2, #2820	; 0xb04
 8000722:	54d1      	strb	r1, [r2, r3]
		i++;
 8000724:	f507 4396 	add.w	r3, r7, #19200	; 0x4b00
 8000728:	f103 030e 	add.w	r3, r3, #14
 800072c:	881b      	ldrh	r3, [r3, #0]
 800072e:	3301      	adds	r3, #1
 8000730:	f507 4296 	add.w	r2, r7, #19200	; 0x4b00
 8000734:	f102 020e 	add.w	r2, r2, #14
 8000738:	8013      	strh	r3, [r2, #0]
	for(uint16_t i=0;i<19200;i++)
 800073a:	f507 4396 	add.w	r3, r7, #19200	; 0x4b00
 800073e:	f103 030e 	add.w	r3, r3, #14
 8000742:	881b      	ldrh	r3, [r3, #0]
 8000744:	3301      	adds	r3, #1
 8000746:	f507 4296 	add.w	r2, r7, #19200	; 0x4b00
 800074a:	f102 020e 	add.w	r2, r2, #14
 800074e:	8013      	strh	r3, [r2, #0]
 8000750:	f507 4396 	add.w	r3, r7, #19200	; 0x4b00
 8000754:	f103 030e 	add.w	r3, r3, #14
 8000758:	881b      	ldrh	r3, [r3, #0]
 800075a:	f5b3 4f96 	cmp.w	r3, #19200	; 0x4b00
 800075e:	d3be      	bcc.n	80006de <lcdFill+0x2e>
	}

	for(uint16_t j=0;j<240;j+=30)	//Writing 30 lines at a time
 8000760:	2300      	movs	r3, #0
 8000762:	f507 4296 	add.w	r2, r7, #19200	; 0x4b00
 8000766:	f102 020c 	add.w	r2, r2, #12
 800076a:	8013      	strh	r3, [r2, #0]
 800076c:	e028      	b.n	80007c0 <lcdFill+0x110>
	{
		lcdWriteArea(spiHandleStructure, tempcolarr,19200,0,320,j,j+30);
 800076e:	f507 4396 	add.w	r3, r7, #19200	; 0x4b00
 8000772:	f103 030c 	add.w	r3, r3, #12
 8000776:	881b      	ldrh	r3, [r3, #0]
 8000778:	331e      	adds	r3, #30
 800077a:	b29b      	uxth	r3, r3
 800077c:	f107 0110 	add.w	r1, r7, #16
 8000780:	3904      	subs	r1, #4
 8000782:	f507 6231 	add.w	r2, r7, #2832	; 0xb10
 8000786:	f6a2 300c 	subw	r0, r2, #2828	; 0xb0c
 800078a:	9302      	str	r3, [sp, #8]
 800078c:	f507 4396 	add.w	r3, r7, #19200	; 0x4b00
 8000790:	f103 030c 	add.w	r3, r3, #12
 8000794:	881b      	ldrh	r3, [r3, #0]
 8000796:	9301      	str	r3, [sp, #4]
 8000798:	f44f 73a0 	mov.w	r3, #320	; 0x140
 800079c:	9300      	str	r3, [sp, #0]
 800079e:	2300      	movs	r3, #0
 80007a0:	f44f 4296 	mov.w	r2, #19200	; 0x4b00
 80007a4:	6800      	ldr	r0, [r0, #0]
 80007a6:	f7ff ff4f 	bl	8000648 <lcdWriteArea>
	for(uint16_t j=0;j<240;j+=30)	//Writing 30 lines at a time
 80007aa:	f507 4396 	add.w	r3, r7, #19200	; 0x4b00
 80007ae:	f103 030c 	add.w	r3, r3, #12
 80007b2:	881b      	ldrh	r3, [r3, #0]
 80007b4:	331e      	adds	r3, #30
 80007b6:	f507 4296 	add.w	r2, r7, #19200	; 0x4b00
 80007ba:	f102 020c 	add.w	r2, r2, #12
 80007be:	8013      	strh	r3, [r2, #0]
 80007c0:	f507 4396 	add.w	r3, r7, #19200	; 0x4b00
 80007c4:	f103 030c 	add.w	r3, r3, #12
 80007c8:	881b      	ldrh	r3, [r3, #0]
 80007ca:	2bef      	cmp	r3, #239	; 0xef
 80007cc:	d9cf      	bls.n	800076e <lcdFill+0xbe>
	}
}
 80007ce:	bf00      	nop
 80007d0:	bf00      	nop
 80007d2:	f507 4796 	add.w	r7, r7, #19200	; 0x4b00
 80007d6:	3710      	adds	r7, #16
 80007d8:	46bd      	mov	sp, r7
 80007da:	bd80      	pop	{r7, pc}

080007dc <lcdWritePixel>:
 *
 * RETURN		:	void
 *
 * **************************************************************************/
void lcdWritePixel(SPI_Handle_t *spiHandleStructure, uint16_t color, uint16_t x, uint16_t y)
{
 80007dc:	b580      	push	{r7, lr}
 80007de:	b088      	sub	sp, #32
 80007e0:	af02      	add	r7, sp, #8
 80007e2:	60f8      	str	r0, [r7, #12]
 80007e4:	4608      	mov	r0, r1
 80007e6:	4611      	mov	r1, r2
 80007e8:	461a      	mov	r2, r3
 80007ea:	4603      	mov	r3, r0
 80007ec:	817b      	strh	r3, [r7, #10]
 80007ee:	460b      	mov	r3, r1
 80007f0:	813b      	strh	r3, [r7, #8]
 80007f2:	4613      	mov	r3, r2
 80007f4:	80fb      	strh	r3, [r7, #6]
	uint8_t tempArr[2];
	tempArr[0] = color>>8;
 80007f6:	897b      	ldrh	r3, [r7, #10]
 80007f8:	0a1b      	lsrs	r3, r3, #8
 80007fa:	b29b      	uxth	r3, r3
 80007fc:	b2db      	uxtb	r3, r3
 80007fe:	753b      	strb	r3, [r7, #20]
	tempArr[1] = color & 0xFF;
 8000800:	897b      	ldrh	r3, [r7, #10]
 8000802:	b2db      	uxtb	r3, r3
 8000804:	757b      	strb	r3, [r7, #21]

	lcdSetWriteArea(spiHandleStructure,x,x,y,y);
 8000806:	88f8      	ldrh	r0, [r7, #6]
 8000808:	893a      	ldrh	r2, [r7, #8]
 800080a:	8939      	ldrh	r1, [r7, #8]
 800080c:	88fb      	ldrh	r3, [r7, #6]
 800080e:	9300      	str	r3, [sp, #0]
 8000810:	4603      	mov	r3, r0
 8000812:	68f8      	ldr	r0, [r7, #12]
 8000814:	f7ff fed0 	bl	80005b8 <lcdSetWriteArea>

	lcdWriteCmd(spiHandleStructure,ILI9341_GRAM);
 8000818:	212c      	movs	r1, #44	; 0x2c
 800081a:	68f8      	ldr	r0, [r7, #12]
 800081c:	f7ff fe68 	bl	80004f0 <lcdWriteCmd>
	LCD_CSX_LOW();	//To start transmission
 8000820:	4b0e      	ldr	r3, [pc, #56]	; (800085c <lcdWritePixel+0x80>)
 8000822:	695b      	ldr	r3, [r3, #20]
 8000824:	4a0d      	ldr	r2, [pc, #52]	; (800085c <lcdWritePixel+0x80>)
 8000826:	f023 0310 	bic.w	r3, r3, #16
 800082a:	6153      	str	r3, [r2, #20]
	LCD_DCX_HIGH();	//To indicate data
 800082c:	4b0b      	ldr	r3, [pc, #44]	; (800085c <lcdWritePixel+0x80>)
 800082e:	695b      	ldr	r3, [r3, #20]
 8000830:	4a0a      	ldr	r2, [pc, #40]	; (800085c <lcdWritePixel+0x80>)
 8000832:	f043 0304 	orr.w	r3, r3, #4
 8000836:	6153      	str	r3, [r2, #20]

	lcdWriteData(spiHandleStructure, tempArr, 2);
 8000838:	f107 0314 	add.w	r3, r7, #20
 800083c:	2202      	movs	r2, #2
 800083e:	4619      	mov	r1, r3
 8000840:	68f8      	ldr	r0, [r7, #12]
 8000842:	f7ff fe7d 	bl	8000540 <lcdWriteData>

	LCD_CSX_HIGH();//To stop transmission
 8000846:	4b05      	ldr	r3, [pc, #20]	; (800085c <lcdWritePixel+0x80>)
 8000848:	695b      	ldr	r3, [r3, #20]
 800084a:	4a04      	ldr	r2, [pc, #16]	; (800085c <lcdWritePixel+0x80>)
 800084c:	f043 0310 	orr.w	r3, r3, #16
 8000850:	6153      	str	r3, [r2, #20]
}
 8000852:	bf00      	nop
 8000854:	3718      	adds	r7, #24
 8000856:	46bd      	mov	sp, r7
 8000858:	bd80      	pop	{r7, pc}
 800085a:	bf00      	nop
 800085c:	40020000 	.word	0x40020000

08000860 <lcdWriteString>:
 *
 * RETURN		:	void
 *
 * **************************************************************************/
void lcdWriteString(SPI_Handle_t *spiHandleStructure,char *string,Font_Handler_t font_handler[],uint16_t color,uint8_t spacing,uint16_t x,uint16_t y)
{
 8000860:	b580      	push	{r7, lr}
 8000862:	b08e      	sub	sp, #56	; 0x38
 8000864:	af00      	add	r7, sp, #0
 8000866:	60f8      	str	r0, [r7, #12]
 8000868:	60b9      	str	r1, [r7, #8]
 800086a:	607a      	str	r2, [r7, #4]
 800086c:	807b      	strh	r3, [r7, #2]
	uint8_t font_height = 0;
 800086e:	2300      	movs	r3, #0
 8000870:	f887 3037 	strb.w	r3, [r7, #55]	; 0x37
	uint8_t font_width = 0;
 8000874:	2300      	movs	r3, #0
 8000876:	f887 3036 	strb.w	r3, [r7, #54]	; 0x36
	uint8_t ascii = 0;
 800087a:	2300      	movs	r3, #0
 800087c:	777b      	strb	r3, [r7, #29]
	uint8_t len = strlen(string);
 800087e:	68b8      	ldr	r0, [r7, #8]
 8000880:	f7ff fca2 	bl	80001c8 <strlen>
 8000884:	4603      	mov	r3, r0
 8000886:	773b      	strb	r3, [r7, #28]
	uint16_t start = 0;
 8000888:	2300      	movs	r3, #0
 800088a:	837b      	strh	r3, [r7, #26]
	uint16_t end =0;
 800088c:	2300      	movs	r3, #0
 800088e:	86bb      	strh	r3, [r7, #52]	; 0x34
	uint16_t clipping = 0;
 8000890:	2300      	movs	r3, #0
 8000892:	833b      	strh	r3, [r7, #24]
	uint16_t no_of_bytes_per_column = 0;
 8000894:	2300      	movs	r3, #0
 8000896:	82fb      	strh	r3, [r7, #22]
	uint16_t y1 = 0;
 8000898:	2300      	movs	r3, #0
 800089a:	867b      	strh	r3, [r7, #50]	; 0x32
	uint16_t x1 = x;
 800089c:	f8b7 3044 	ldrh.w	r3, [r7, #68]	; 0x44
 80008a0:	863b      	strh	r3, [r7, #48]	; 0x30
	uint16_t counter = 0;
 80008a2:	2300      	movs	r3, #0
 80008a4:	85fb      	strh	r3, [r7, #46]	; 0x2e
	uint8_t *font;

	if(font_handler == Arial24x24_t)
 80008a6:	687b      	ldr	r3, [r7, #4]
 80008a8:	4a5a      	ldr	r2, [pc, #360]	; (8000a14 <lcdWriteString+0x1b4>)
 80008aa:	4293      	cmp	r3, r2
 80008ac:	d108      	bne.n	80008c0 <lcdWriteString+0x60>
	{
		font_height = 24;	//16 pixels
 80008ae:	2318      	movs	r3, #24
 80008b0:	f887 3037 	strb.w	r3, [r7, #55]	; 0x37
		font_width = 24;		//2Bytes = 16 Pixels
 80008b4:	2318      	movs	r3, #24
 80008b6:	f887 3036 	strb.w	r3, [r7, #54]	; 0x36
		font = (uint8_t*)Arial24x24;
 80008ba:	4b57      	ldr	r3, [pc, #348]	; (8000a18 <lcdWriteString+0x1b8>)
 80008bc:	62bb      	str	r3, [r7, #40]	; 0x28
 80008be:	e00b      	b.n	80008d8 <lcdWriteString+0x78>
	}
	else if(font_handler == Arial32x32Bold_t)
 80008c0:	687b      	ldr	r3, [r7, #4]
 80008c2:	4a56      	ldr	r2, [pc, #344]	; (8000a1c <lcdWriteString+0x1bc>)
 80008c4:	4293      	cmp	r3, r2
 80008c6:	d107      	bne.n	80008d8 <lcdWriteString+0x78>
	{
		font_height = 32;	//16 pixels
 80008c8:	2320      	movs	r3, #32
 80008ca:	f887 3037 	strb.w	r3, [r7, #55]	; 0x37
		font_width = 32;		//2Bytes = 16 Pixels
 80008ce:	2320      	movs	r3, #32
 80008d0:	f887 3036 	strb.w	r3, [r7, #54]	; 0x36
		font = (uint8_t*)Arial32x32Bold;
 80008d4:	4b52      	ldr	r3, [pc, #328]	; (8000a20 <lcdWriteString+0x1c0>)
 80008d6:	62bb      	str	r3, [r7, #40]	; 0x28
	}

	for(uint32_t i=0;i<len;i++)
 80008d8:	2300      	movs	r3, #0
 80008da:	627b      	str	r3, [r7, #36]	; 0x24
 80008dc:	e090      	b.n	8000a00 <lcdWriteString+0x1a0>
	{
		ascii = string[i];
 80008de:	68ba      	ldr	r2, [r7, #8]
 80008e0:	6a7b      	ldr	r3, [r7, #36]	; 0x24
 80008e2:	4413      	add	r3, r2
 80008e4:	781b      	ldrb	r3, [r3, #0]
 80008e6:	777b      	strb	r3, [r7, #29]
		start = font_handler[ascii].start;	//Starting Point of char inside Font Array
 80008e8:	7f7b      	ldrb	r3, [r7, #29]
 80008ea:	00db      	lsls	r3, r3, #3
 80008ec:	687a      	ldr	r2, [r7, #4]
 80008ee:	4413      	add	r3, r2
 80008f0:	889b      	ldrh	r3, [r3, #4]
 80008f2:	837b      	strh	r3, [r7, #26]
		clipping = font_handler[ascii].clipping;//columns to be clipped from the Font Array
 80008f4:	7f7b      	ldrb	r3, [r7, #29]
 80008f6:	00db      	lsls	r3, r3, #3
 80008f8:	687a      	ldr	r2, [r7, #4]
 80008fa:	4413      	add	r3, r2
 80008fc:	88db      	ldrh	r3, [r3, #6]
 80008fe:	833b      	strh	r3, [r7, #24]
		if(ascii == 32)
 8000900:	7f7b      	ldrb	r3, [r7, #29]
 8000902:	2b20      	cmp	r3, #32
 8000904:	d102      	bne.n	800090c <lcdWriteString+0xac>
		{
			end = 8;
 8000906:	2308      	movs	r3, #8
 8000908:	86bb      	strh	r3, [r7, #52]	; 0x34
 800090a:	e008      	b.n	800091e <lcdWriteString+0xbe>
		}
		else
		{
			end = start+font_width-clipping;	//End Point of Char inside the Font Array
 800090c:	f897 3036 	ldrb.w	r3, [r7, #54]	; 0x36
 8000910:	b29a      	uxth	r2, r3
 8000912:	8b7b      	ldrh	r3, [r7, #26]
 8000914:	4413      	add	r3, r2
 8000916:	b29a      	uxth	r2, r3
 8000918:	8b3b      	ldrh	r3, [r7, #24]
 800091a:	1ad3      	subs	r3, r2, r3
 800091c:	86bb      	strh	r3, [r7, #52]	; 0x34
		}
		no_of_bytes_per_column = font_height/8; //No of Bytes per column inside the Font Array
 800091e:	f897 3037 	ldrb.w	r3, [r7, #55]	; 0x37
 8000922:	08db      	lsrs	r3, r3, #3
 8000924:	b2db      	uxtb	r3, r3
 8000926:	82fb      	strh	r3, [r7, #22]
		counter = start;
 8000928:	8b7b      	ldrh	r3, [r7, #26]
 800092a:	85fb      	strh	r3, [r7, #46]	; 0x2e

		//Checking if character will fit in particular row
		if((x1+(end-start))>320)
 800092c:	8e3a      	ldrh	r2, [r7, #48]	; 0x30
 800092e:	8eb9      	ldrh	r1, [r7, #52]	; 0x34
 8000930:	8b7b      	ldrh	r3, [r7, #26]
 8000932:	1acb      	subs	r3, r1, r3
 8000934:	4413      	add	r3, r2
 8000936:	f5b3 7fa0 	cmp.w	r3, #320	; 0x140
 800093a:	dd0a      	ble.n	8000952 <lcdWriteString+0xf2>
		{
			y+=font_height;	//Moving to the next line
 800093c:	f897 3037 	ldrb.w	r3, [r7, #55]	; 0x37
 8000940:	b29a      	uxth	r2, r3
 8000942:	f8b7 3048 	ldrh.w	r3, [r7, #72]	; 0x48
 8000946:	4413      	add	r3, r2
 8000948:	f8a7 3048 	strh.w	r3, [r7, #72]	; 0x48
			x1 = x;
 800094c:	f8b7 3044 	ldrh.w	r3, [r7, #68]	; 0x44
 8000950:	863b      	strh	r3, [r7, #48]	; 0x30

		}

		y1 = y;
 8000952:	f8b7 3048 	ldrh.w	r3, [r7, #72]	; 0x48
 8000956:	867b      	strh	r3, [r7, #50]	; 0x32

		//Writing the Character
		for(uint16_t i=start;i<end;i++)//Counting Columns inside the Font Array
 8000958:	8b7b      	ldrh	r3, [r7, #26]
 800095a:	847b      	strh	r3, [r7, #34]	; 0x22
 800095c:	e043      	b.n	80009e6 <lcdWriteString+0x186>
		{
			for(uint16_t j=0;j<no_of_bytes_per_column;j++)//Counting Number of Bytes per column inside the Font Array
 800095e:	2300      	movs	r3, #0
 8000960:	843b      	strh	r3, [r7, #32]
 8000962:	e033      	b.n	80009cc <lcdWriteString+0x16c>
			{
				for(int16_t k=7;k>=0;k--)//Counting Number of Bits per Byte (one bit = one pixel)
 8000964:	2307      	movs	r3, #7
 8000966:	83fb      	strh	r3, [r7, #30]
 8000968:	e026      	b.n	80009b8 <lcdWriteString+0x158>
				{
					if((font[counter]&(1<<k))>=1)	//If the Bit is set then you write the pixel using the color
 800096a:	8dfb      	ldrh	r3, [r7, #46]	; 0x2e
 800096c:	6aba      	ldr	r2, [r7, #40]	; 0x28
 800096e:	4413      	add	r3, r2
 8000970:	781b      	ldrb	r3, [r3, #0]
 8000972:	4619      	mov	r1, r3
 8000974:	f9b7 301e 	ldrsh.w	r3, [r7, #30]
 8000978:	2201      	movs	r2, #1
 800097a:	fa02 f303 	lsl.w	r3, r2, r3
 800097e:	400b      	ands	r3, r1
 8000980:	2b00      	cmp	r3, #0
 8000982:	dd09      	ble.n	8000998 <lcdWriteString+0x138>
					{
						lcdWritePixel(spiHandleStructure, color, x1, y1);
 8000984:	8e7b      	ldrh	r3, [r7, #50]	; 0x32
 8000986:	8e3a      	ldrh	r2, [r7, #48]	; 0x30
 8000988:	8879      	ldrh	r1, [r7, #2]
 800098a:	68f8      	ldr	r0, [r7, #12]
 800098c:	f7ff ff26 	bl	80007dc <lcdWritePixel>
						y1++;	//Incrementing the Y pos
 8000990:	8e7b      	ldrh	r3, [r7, #50]	; 0x32
 8000992:	3301      	adds	r3, #1
 8000994:	867b      	strh	r3, [r7, #50]	; 0x32
 8000996:	e009      	b.n	80009ac <lcdWriteString+0x14c>
						/*
						 * If the Bit is not set then write the pixel using the BG color
						 * as if you are over writing already written space then the previously written
						 * character will not be superimposed over the new one
						 */
						lcdWritePixel(spiHandleStructure, BG, x1, y1);
 8000998:	8e7b      	ldrh	r3, [r7, #50]	; 0x32
 800099a:	8e3a      	ldrh	r2, [r7, #48]	; 0x30
 800099c:	f64e 714c 	movw	r1, #61260	; 0xef4c
 80009a0:	68f8      	ldr	r0, [r7, #12]
 80009a2:	f7ff ff1b 	bl	80007dc <lcdWritePixel>
						y1++;	//Incrementing the Y pos
 80009a6:	8e7b      	ldrh	r3, [r7, #50]	; 0x32
 80009a8:	3301      	adds	r3, #1
 80009aa:	867b      	strh	r3, [r7, #50]	; 0x32
				for(int16_t k=7;k>=0;k--)//Counting Number of Bits per Byte (one bit = one pixel)
 80009ac:	f9b7 301e 	ldrsh.w	r3, [r7, #30]
 80009b0:	b29b      	uxth	r3, r3
 80009b2:	3b01      	subs	r3, #1
 80009b4:	b29b      	uxth	r3, r3
 80009b6:	83fb      	strh	r3, [r7, #30]
 80009b8:	f9b7 301e 	ldrsh.w	r3, [r7, #30]
 80009bc:	2b00      	cmp	r3, #0
 80009be:	dad4      	bge.n	800096a <lcdWriteString+0x10a>
					}
				}
				counter++;
 80009c0:	8dfb      	ldrh	r3, [r7, #46]	; 0x2e
 80009c2:	3301      	adds	r3, #1
 80009c4:	85fb      	strh	r3, [r7, #46]	; 0x2e
			for(uint16_t j=0;j<no_of_bytes_per_column;j++)//Counting Number of Bytes per column inside the Font Array
 80009c6:	8c3b      	ldrh	r3, [r7, #32]
 80009c8:	3301      	adds	r3, #1
 80009ca:	843b      	strh	r3, [r7, #32]
 80009cc:	8c3a      	ldrh	r2, [r7, #32]
 80009ce:	8afb      	ldrh	r3, [r7, #22]
 80009d0:	429a      	cmp	r2, r3
 80009d2:	d3c7      	bcc.n	8000964 <lcdWriteString+0x104>
			}
			y1=y;
 80009d4:	f8b7 3048 	ldrh.w	r3, [r7, #72]	; 0x48
 80009d8:	867b      	strh	r3, [r7, #50]	; 0x32
			x1++;	//Incrementing the X Pos
 80009da:	8e3b      	ldrh	r3, [r7, #48]	; 0x30
 80009dc:	3301      	adds	r3, #1
 80009de:	863b      	strh	r3, [r7, #48]	; 0x30
		for(uint16_t i=start;i<end;i++)//Counting Columns inside the Font Array
 80009e0:	8c7b      	ldrh	r3, [r7, #34]	; 0x22
 80009e2:	3301      	adds	r3, #1
 80009e4:	847b      	strh	r3, [r7, #34]	; 0x22
 80009e6:	8c7a      	ldrh	r2, [r7, #34]	; 0x22
 80009e8:	8ebb      	ldrh	r3, [r7, #52]	; 0x34
 80009ea:	429a      	cmp	r2, r3
 80009ec:	d3b7      	bcc.n	800095e <lcdWriteString+0xfe>
		}

		//Creating the Spacing
		x1+=spacing;
 80009ee:	f897 3040 	ldrb.w	r3, [r7, #64]	; 0x40
 80009f2:	b29a      	uxth	r2, r3
 80009f4:	8e3b      	ldrh	r3, [r7, #48]	; 0x30
 80009f6:	4413      	add	r3, r2
 80009f8:	863b      	strh	r3, [r7, #48]	; 0x30
	for(uint32_t i=0;i<len;i++)
 80009fa:	6a7b      	ldr	r3, [r7, #36]	; 0x24
 80009fc:	3301      	adds	r3, #1
 80009fe:	627b      	str	r3, [r7, #36]	; 0x24
 8000a00:	7f3b      	ldrb	r3, [r7, #28]
 8000a02:	6a7a      	ldr	r2, [r7, #36]	; 0x24
 8000a04:	429a      	cmp	r2, r3
 8000a06:	f4ff af6a 	bcc.w	80008de <lcdWriteString+0x7e>
	}
}
 8000a0a:	bf00      	nop
 8000a0c:	bf00      	nop
 8000a0e:	3738      	adds	r7, #56	; 0x38
 8000a10:	46bd      	mov	sp, r7
 8000a12:	bd80      	pop	{r7, pc}
 8000a14:	08003628 	.word	0x08003628
 8000a18:	08001ba0 	.word	0x08001ba0
 8000a1c:	080040a8 	.word	0x080040a8
 8000a20:	08003a28 	.word	0x08003a28

08000a24 <RCC_OscillatorConfig>:
 *
 * RETURN		:	Status_t - Return HAL_OK, HAL_ERROR to help debug problems
 *
 * **************************************************************************/
Status_t RCC_OscillatorConfig(RCC_OscInit_t *RCC_OscInitStruct)
{
 8000a24:	b480      	push	{r7}
 8000a26:	b085      	sub	sp, #20
 8000a28:	af00      	add	r7, sp, #0
 8000a2a:	6078      	str	r0, [r7, #4]
	uint32_t sysClkSrc, pllClkSrc;

	sysClkSrc = RCC_GET_SYSCLK_SRC();		//Identify the System Clock Source
 8000a2c:	4b79      	ldr	r3, [pc, #484]	; (8000c14 <RCC_OscillatorConfig+0x1f0>)
 8000a2e:	689b      	ldr	r3, [r3, #8]
 8000a30:	f003 030c 	and.w	r3, r3, #12
 8000a34:	60fb      	str	r3, [r7, #12]
	pllClkSrc = RCC_GET_PLL_OSC_SOURCE();	//Identify the PLL Clock Source
 8000a36:	4b77      	ldr	r3, [pc, #476]	; (8000c14 <RCC_OscillatorConfig+0x1f0>)
 8000a38:	685b      	ldr	r3, [r3, #4]
 8000a3a:	f403 0380 	and.w	r3, r3, #4194304	; 0x400000
 8000a3e:	60bb      	str	r3, [r7, #8]

	/********************* HSI Configuration *******************/
	if((RCC_OscInitStruct->oscillatorType & RCC_OSCILLATOR_TYPE_HSI) == RCC_OSCILLATOR_TYPE_HSI)
 8000a40:	687b      	ldr	r3, [r7, #4]
 8000a42:	681b      	ldr	r3, [r3, #0]
 8000a44:	f003 0301 	and.w	r3, r3, #1
 8000a48:	2b00      	cmp	r3, #0
 8000a4a:	d02d      	beq.n	8000aa8 <RCC_OscillatorConfig+0x84>
	{
		//Check if HSI is used as system Clock source or as PLL Clock Source
		if(sysClkSrc == RCC_CFGR_SWS_HSI || ((sysClkSrc == RCC_CFGR_SWS_PLL) && (pllClkSrc == RCC_PLLCFGR_PLLSRC_HSI)))
 8000a4c:	68fb      	ldr	r3, [r7, #12]
 8000a4e:	2b00      	cmp	r3, #0
 8000a50:	d005      	beq.n	8000a5e <RCC_OscillatorConfig+0x3a>
 8000a52:	68fb      	ldr	r3, [r7, #12]
 8000a54:	2b08      	cmp	r3, #8
 8000a56:	d108      	bne.n	8000a6a <RCC_OscillatorConfig+0x46>
 8000a58:	68bb      	ldr	r3, [r7, #8]
 8000a5a:	2b00      	cmp	r3, #0
 8000a5c:	d105      	bne.n	8000a6a <RCC_OscillatorConfig+0x46>
		{
			//Cannot turn of HSI Oscillator if it is used as system clock or PLL Clock Source
			if(RCC_OscInitStruct->hsiState == RCC_HSI_OFF)
 8000a5e:	687b      	ldr	r3, [r7, #4]
 8000a60:	685b      	ldr	r3, [r3, #4]
 8000a62:	2b00      	cmp	r3, #0
 8000a64:	d120      	bne.n	8000aa8 <RCC_OscillatorConfig+0x84>
			{
				return HAL_ERROR;
 8000a66:	2301      	movs	r3, #1
 8000a68:	e0cd      	b.n	8000c06 <RCC_OscillatorConfig+0x1e2>
			}
		}
		else
		{
			// If the HSI State is ON
			if(RCC_OscInitStruct->hsiState != RCC_HSI_OFF)
 8000a6a:	687b      	ldr	r3, [r7, #4]
 8000a6c:	685b      	ldr	r3, [r3, #4]
 8000a6e:	2b00      	cmp	r3, #0
 8000a70:	d00d      	beq.n	8000a8e <RCC_OscillatorConfig+0x6a>
			{

				RCC_HSI_ENABLE();	//Enabling the HSI Clock
 8000a72:	4b68      	ldr	r3, [pc, #416]	; (8000c14 <RCC_OscillatorConfig+0x1f0>)
 8000a74:	681b      	ldr	r3, [r3, #0]
 8000a76:	4a67      	ldr	r2, [pc, #412]	; (8000c14 <RCC_OscillatorConfig+0x1f0>)
 8000a78:	f043 0301 	orr.w	r3, r3, #1
 8000a7c:	6013      	str	r3, [r2, #0]

				//Waiting for the HSI Ready Flag to be set
				while(READ_BIT(RCC->CR,RCC_CR_HSIRDY) == 0U);
 8000a7e:	bf00      	nop
 8000a80:	4b64      	ldr	r3, [pc, #400]	; (8000c14 <RCC_OscillatorConfig+0x1f0>)
 8000a82:	681b      	ldr	r3, [r3, #0]
 8000a84:	f003 0302 	and.w	r3, r3, #2
 8000a88:	2b00      	cmp	r3, #0
 8000a8a:	d0f9      	beq.n	8000a80 <RCC_OscillatorConfig+0x5c>
 8000a8c:	e00c      	b.n	8000aa8 <RCC_OscillatorConfig+0x84>
			}
			else	//If the HSI state is OFF
			{
				RCC_HSI_DISABLE();	//Disable the HSI Clock
 8000a8e:	4b61      	ldr	r3, [pc, #388]	; (8000c14 <RCC_OscillatorConfig+0x1f0>)
 8000a90:	681b      	ldr	r3, [r3, #0]
 8000a92:	4a60      	ldr	r2, [pc, #384]	; (8000c14 <RCC_OscillatorConfig+0x1f0>)
 8000a94:	f023 0301 	bic.w	r3, r3, #1
 8000a98:	6013      	str	r3, [r2, #0]

				//Wait for the HSI Ready Flag to be cleared
				while(READ_BIT(RCC->CR,RCC_CR_HSIRDY) != 0U);
 8000a9a:	bf00      	nop
 8000a9c:	4b5d      	ldr	r3, [pc, #372]	; (8000c14 <RCC_OscillatorConfig+0x1f0>)
 8000a9e:	681b      	ldr	r3, [r3, #0]
 8000aa0:	f003 0302 	and.w	r3, r3, #2
 8000aa4:	2b00      	cmp	r3, #0
 8000aa6:	d1f9      	bne.n	8000a9c <RCC_OscillatorConfig+0x78>
			}
		}
	}

	/********************* HSE Configuration ************************/
	if((RCC_OscInitStruct->oscillatorType & RCC_OSCILLATOR_TYPE_HSE) == RCC_OSCILLATOR_TYPE_HSE)
 8000aa8:	687b      	ldr	r3, [r7, #4]
 8000aaa:	681b      	ldr	r3, [r3, #0]
 8000aac:	f003 0302 	and.w	r3, r3, #2
 8000ab0:	2b00      	cmp	r3, #0
 8000ab2:	d048      	beq.n	8000b46 <RCC_OscillatorConfig+0x122>
	{
		//Check if HSE is used as system Clock source or as PLL Clock Source
		if((sysClkSrc == RCC_CFGR_SWS_HSE) || ((sysClkSrc == RCC_CFGR_SWS_HSE) && (pllClkSrc == RCC_PLLCFGR_PLLSRC_HSE)))
 8000ab4:	68fb      	ldr	r3, [r7, #12]
 8000ab6:	2b04      	cmp	r3, #4
 8000ab8:	d006      	beq.n	8000ac8 <RCC_OscillatorConfig+0xa4>
 8000aba:	68fb      	ldr	r3, [r7, #12]
 8000abc:	2b04      	cmp	r3, #4
 8000abe:	d109      	bne.n	8000ad4 <RCC_OscillatorConfig+0xb0>
 8000ac0:	68bb      	ldr	r3, [r7, #8]
 8000ac2:	f5b3 0f80 	cmp.w	r3, #4194304	; 0x400000
 8000ac6:	d105      	bne.n	8000ad4 <RCC_OscillatorConfig+0xb0>
		{
			//Cannot turn of HSE Oscillator if it is used as system clock or PLL Clock Source
			if(RCC_OscInitStruct->hsiState == RCC_HSI_OFF)
 8000ac8:	687b      	ldr	r3, [r7, #4]
 8000aca:	685b      	ldr	r3, [r3, #4]
 8000acc:	2b00      	cmp	r3, #0
 8000ace:	d13a      	bne.n	8000b46 <RCC_OscillatorConfig+0x122>
			{
				return HAL_ERROR;
 8000ad0:	2301      	movs	r3, #1
 8000ad2:	e098      	b.n	8000c06 <RCC_OscillatorConfig+0x1e2>
			}
		}
		else
		{
			if(RCC_OscInitStruct->hseState == RCC_HSE_ON) //If HSE State is ON
 8000ad4:	687b      	ldr	r3, [r7, #4]
 8000ad6:	689b      	ldr	r3, [r3, #8]
 8000ad8:	f5b3 3f80 	cmp.w	r3, #65536	; 0x10000
 8000adc:	d10d      	bne.n	8000afa <RCC_OscillatorConfig+0xd6>
			{
				RCC_HSE_ENABLE();	//Enabling HSE
 8000ade:	4b4d      	ldr	r3, [pc, #308]	; (8000c14 <RCC_OscillatorConfig+0x1f0>)
 8000ae0:	681b      	ldr	r3, [r3, #0]
 8000ae2:	4a4c      	ldr	r2, [pc, #304]	; (8000c14 <RCC_OscillatorConfig+0x1f0>)
 8000ae4:	f443 3380 	orr.w	r3, r3, #65536	; 0x10000
 8000ae8:	6013      	str	r3, [r2, #0]

				//Waiting for the HSE RDY Flag to be set
				while((READ_BIT(RCC->CR,RCC_CR_HSERDY)) == 0U);
 8000aea:	bf00      	nop
 8000aec:	4b49      	ldr	r3, [pc, #292]	; (8000c14 <RCC_OscillatorConfig+0x1f0>)
 8000aee:	681b      	ldr	r3, [r3, #0]
 8000af0:	f403 3300 	and.w	r3, r3, #131072	; 0x20000
 8000af4:	2b00      	cmp	r3, #0
 8000af6:	d0f9      	beq.n	8000aec <RCC_OscillatorConfig+0xc8>
 8000af8:	e025      	b.n	8000b46 <RCC_OscillatorConfig+0x122>
			}
			else if(RCC_OscInitStruct->hseState == RCC_HSE_BYPASS)	//If HSE State is Bypass
 8000afa:	687b      	ldr	r3, [r7, #4]
 8000afc:	689b      	ldr	r3, [r3, #8]
 8000afe:	f5b3 2f80 	cmp.w	r3, #262144	; 0x40000
 8000b02:	d113      	bne.n	8000b2c <RCC_OscillatorConfig+0x108>
			{
				SET_BIT(RCC->CR,RCC_CR_HSEBYP);
 8000b04:	4b43      	ldr	r3, [pc, #268]	; (8000c14 <RCC_OscillatorConfig+0x1f0>)
 8000b06:	681b      	ldr	r3, [r3, #0]
 8000b08:	4a42      	ldr	r2, [pc, #264]	; (8000c14 <RCC_OscillatorConfig+0x1f0>)
 8000b0a:	f443 2380 	orr.w	r3, r3, #262144	; 0x40000
 8000b0e:	6013      	str	r3, [r2, #0]
				RCC_HSE_ENABLE();	//Enabling HSE
 8000b10:	4b40      	ldr	r3, [pc, #256]	; (8000c14 <RCC_OscillatorConfig+0x1f0>)
 8000b12:	681b      	ldr	r3, [r3, #0]
 8000b14:	4a3f      	ldr	r2, [pc, #252]	; (8000c14 <RCC_OscillatorConfig+0x1f0>)
 8000b16:	f443 3380 	orr.w	r3, r3, #65536	; 0x10000
 8000b1a:	6013      	str	r3, [r2, #0]

				//Waiting for the HSE RDY Flag to be set
				while((READ_BIT(RCC->CR,RCC_CR_HSERDY)) == 0U);
 8000b1c:	bf00      	nop
 8000b1e:	4b3d      	ldr	r3, [pc, #244]	; (8000c14 <RCC_OscillatorConfig+0x1f0>)
 8000b20:	681b      	ldr	r3, [r3, #0]
 8000b22:	f403 3300 	and.w	r3, r3, #131072	; 0x20000
 8000b26:	2b00      	cmp	r3, #0
 8000b28:	d0f9      	beq.n	8000b1e <RCC_OscillatorConfig+0xfa>
 8000b2a:	e00c      	b.n	8000b46 <RCC_OscillatorConfig+0x122>
			}
			else	//If HSE State is OF
			{
				RCC_HSE_DISABLE();
 8000b2c:	4b39      	ldr	r3, [pc, #228]	; (8000c14 <RCC_OscillatorConfig+0x1f0>)
 8000b2e:	681b      	ldr	r3, [r3, #0]
 8000b30:	4a38      	ldr	r2, [pc, #224]	; (8000c14 <RCC_OscillatorConfig+0x1f0>)
 8000b32:	f423 3380 	bic.w	r3, r3, #65536	; 0x10000
 8000b36:	6013      	str	r3, [r2, #0]

				//Waiting for the HSE RDY Flag to be Cleared
				while((READ_BIT(RCC->CR,RCC_CR_HSERDY)) != 0U);
 8000b38:	bf00      	nop
 8000b3a:	4b36      	ldr	r3, [pc, #216]	; (8000c14 <RCC_OscillatorConfig+0x1f0>)
 8000b3c:	681b      	ldr	r3, [r3, #0]
 8000b3e:	f403 3300 	and.w	r3, r3, #131072	; 0x20000
 8000b42:	2b00      	cmp	r3, #0
 8000b44:	d1f9      	bne.n	8000b3a <RCC_OscillatorConfig+0x116>
			}
		}
	}

	/********************** PLL Configuration ************************/
	if((RCC_OscInitStruct->oscillatorType & RCC_OSCILLATOR_TYPE_PLL) == RCC_OSCILLATOR_TYPE_PLL)
 8000b46:	687b      	ldr	r3, [r7, #4]
 8000b48:	681b      	ldr	r3, [r3, #0]
 8000b4a:	f003 0308 	and.w	r3, r3, #8
 8000b4e:	2b00      	cmp	r3, #0
 8000b50:	d058      	beq.n	8000c04 <RCC_OscillatorConfig+0x1e0>
	{
		if(RCC_OscInitStruct->pll.pllState == RCC_PLL_ON)
 8000b52:	687b      	ldr	r3, [r7, #4]
 8000b54:	68db      	ldr	r3, [r3, #12]
 8000b56:	f1b3 7f80 	cmp.w	r3, #16777216	; 0x1000000
 8000b5a:	d140      	bne.n	8000bde <RCC_OscillatorConfig+0x1ba>
		{
			//Setting the PLL Clk Source
			if(RCC_OscInitStruct->pll.pllSource == RCC_PLL_SOURCE_HSI)
 8000b5c:	687b      	ldr	r3, [r7, #4]
 8000b5e:	691b      	ldr	r3, [r3, #16]
 8000b60:	2b00      	cmp	r3, #0
 8000b62:	d104      	bne.n	8000b6e <RCC_OscillatorConfig+0x14a>
			{
				CLEAR_BIT(RCC->PLLCFGR,RCC_PLLCFGR_PLLSRC_HSI);
 8000b64:	4b2b      	ldr	r3, [pc, #172]	; (8000c14 <RCC_OscillatorConfig+0x1f0>)
 8000b66:	4a2b      	ldr	r2, [pc, #172]	; (8000c14 <RCC_OscillatorConfig+0x1f0>)
 8000b68:	685b      	ldr	r3, [r3, #4]
 8000b6a:	6053      	str	r3, [r2, #4]
 8000b6c:	e00a      	b.n	8000b84 <RCC_OscillatorConfig+0x160>
			}
			else if(RCC_OscInitStruct->pll.pllSource == RCC_PLL_SOURCE_HSE)
 8000b6e:	687b      	ldr	r3, [r7, #4]
 8000b70:	691b      	ldr	r3, [r3, #16]
 8000b72:	f5b3 0f80 	cmp.w	r3, #4194304	; 0x400000
 8000b76:	d105      	bne.n	8000b84 <RCC_OscillatorConfig+0x160>
			{
				SET_BIT(RCC->PLLCFGR,RCC_PLLCFGR_PLLSRC_HSE);
 8000b78:	4b26      	ldr	r3, [pc, #152]	; (8000c14 <RCC_OscillatorConfig+0x1f0>)
 8000b7a:	685b      	ldr	r3, [r3, #4]
 8000b7c:	4a25      	ldr	r2, [pc, #148]	; (8000c14 <RCC_OscillatorConfig+0x1f0>)
 8000b7e:	f443 0380 	orr.w	r3, r3, #4194304	; 0x400000
 8000b82:	6053      	str	r3, [r2, #4]
			}

			//Configuring the PLLM Bit
			MODIFY_REG(RCC->PLLCFGR,RCC_PLLCFGR_PLLM_Msk,((RCC_OscInitStruct->pll.pllM) << RCC_PLLCFGR_PLLM_Pos));
 8000b84:	4b23      	ldr	r3, [pc, #140]	; (8000c14 <RCC_OscillatorConfig+0x1f0>)
 8000b86:	685b      	ldr	r3, [r3, #4]
 8000b88:	f023 023f 	bic.w	r2, r3, #63	; 0x3f
 8000b8c:	687b      	ldr	r3, [r7, #4]
 8000b8e:	695b      	ldr	r3, [r3, #20]
 8000b90:	4920      	ldr	r1, [pc, #128]	; (8000c14 <RCC_OscillatorConfig+0x1f0>)
 8000b92:	4313      	orrs	r3, r2
 8000b94:	604b      	str	r3, [r1, #4]

			//Configuring the PLLN Bit
			MODIFY_REG(RCC->PLLCFGR,RCC_PLLCFGR_PLLN_Msk,((RCC_OscInitStruct->pll.pllN) << RCC_PLLCFGR_PLLN_Pos));
 8000b96:	4b1f      	ldr	r3, [pc, #124]	; (8000c14 <RCC_OscillatorConfig+0x1f0>)
 8000b98:	685b      	ldr	r3, [r3, #4]
 8000b9a:	f423 43ff 	bic.w	r3, r3, #32640	; 0x7f80
 8000b9e:	f023 0340 	bic.w	r3, r3, #64	; 0x40
 8000ba2:	687a      	ldr	r2, [r7, #4]
 8000ba4:	6992      	ldr	r2, [r2, #24]
 8000ba6:	0192      	lsls	r2, r2, #6
 8000ba8:	491a      	ldr	r1, [pc, #104]	; (8000c14 <RCC_OscillatorConfig+0x1f0>)
 8000baa:	4313      	orrs	r3, r2
 8000bac:	604b      	str	r3, [r1, #4]

			//Configuring the PLLP Bit
			MODIFY_REG(RCC->PLLCFGR,RCC_PLLCFGR_PLLP_Msk,((RCC_OscInitStruct->pll.pllP) << RCC_PLLCFGR_PLLP_Pos));
 8000bae:	4b19      	ldr	r3, [pc, #100]	; (8000c14 <RCC_OscillatorConfig+0x1f0>)
 8000bb0:	685b      	ldr	r3, [r3, #4]
 8000bb2:	f423 3240 	bic.w	r2, r3, #196608	; 0x30000
 8000bb6:	687b      	ldr	r3, [r7, #4]
 8000bb8:	69db      	ldr	r3, [r3, #28]
 8000bba:	041b      	lsls	r3, r3, #16
 8000bbc:	4915      	ldr	r1, [pc, #84]	; (8000c14 <RCC_OscillatorConfig+0x1f0>)
 8000bbe:	4313      	orrs	r3, r2
 8000bc0:	604b      	str	r3, [r1, #4]

			//Enabling the PLL Clock
			RCC_PLL_ENABLE();
 8000bc2:	4b14      	ldr	r3, [pc, #80]	; (8000c14 <RCC_OscillatorConfig+0x1f0>)
 8000bc4:	681b      	ldr	r3, [r3, #0]
 8000bc6:	4a13      	ldr	r2, [pc, #76]	; (8000c14 <RCC_OscillatorConfig+0x1f0>)
 8000bc8:	f043 7380 	orr.w	r3, r3, #16777216	; 0x1000000
 8000bcc:	6013      	str	r3, [r2, #0]

			//Waiting for the PLL RDY Flag to be set
			while((READ_BIT(RCC->CR,RCC_CR_PLLRDY)) == 0U);
 8000bce:	bf00      	nop
 8000bd0:	4b10      	ldr	r3, [pc, #64]	; (8000c14 <RCC_OscillatorConfig+0x1f0>)
 8000bd2:	681b      	ldr	r3, [r3, #0]
 8000bd4:	f003 7300 	and.w	r3, r3, #33554432	; 0x2000000
 8000bd8:	2b00      	cmp	r3, #0
 8000bda:	d0f9      	beq.n	8000bd0 <RCC_OscillatorConfig+0x1ac>
 8000bdc:	e012      	b.n	8000c04 <RCC_OscillatorConfig+0x1e0>
		}
		else
		{
			if(sysClkSrc != RCC_CFGR_SWS_PLL)
 8000bde:	68fb      	ldr	r3, [r7, #12]
 8000be0:	2b08      	cmp	r3, #8
 8000be2:	d00d      	beq.n	8000c00 <RCC_OscillatorConfig+0x1dc>
			{
				//Disabling the PLL
				RCC_PLL_DISABLE();
 8000be4:	4b0b      	ldr	r3, [pc, #44]	; (8000c14 <RCC_OscillatorConfig+0x1f0>)
 8000be6:	681b      	ldr	r3, [r3, #0]
 8000be8:	4a0a      	ldr	r2, [pc, #40]	; (8000c14 <RCC_OscillatorConfig+0x1f0>)
 8000bea:	f023 7380 	bic.w	r3, r3, #16777216	; 0x1000000
 8000bee:	6013      	str	r3, [r2, #0]

				//Waiting for the PLL RDY Flag to be cleared
				while((READ_BIT(RCC->CR,RCC_CR_PLLRDY)) != 0U);
 8000bf0:	bf00      	nop
 8000bf2:	4b08      	ldr	r3, [pc, #32]	; (8000c14 <RCC_OscillatorConfig+0x1f0>)
 8000bf4:	681b      	ldr	r3, [r3, #0]
 8000bf6:	f003 7300 	and.w	r3, r3, #33554432	; 0x2000000
 8000bfa:	2b00      	cmp	r3, #0
 8000bfc:	d1f9      	bne.n	8000bf2 <RCC_OscillatorConfig+0x1ce>
 8000bfe:	e001      	b.n	8000c04 <RCC_OscillatorConfig+0x1e0>
			}
			else
			{
				return HAL_ERROR;
 8000c00:	2301      	movs	r3, #1
 8000c02:	e000      	b.n	8000c06 <RCC_OscillatorConfig+0x1e2>
			}

		}
	}
	return HAL_OK;
 8000c04:	2300      	movs	r3, #0
}
 8000c06:	4618      	mov	r0, r3
 8000c08:	3714      	adds	r7, #20
 8000c0a:	46bd      	mov	sp, r7
 8000c0c:	f85d 7b04 	ldr.w	r7, [sp], #4
 8000c10:	4770      	bx	lr
 8000c12:	bf00      	nop
 8000c14:	40023800 	.word	0x40023800

08000c18 <RCC_ClockConfig>:
 *
 * RETURN		:	Status_t - Return HAL_OK, HAL_ERROR to help debug problems
 *
 * **************************************************************************/
Status_t RCC_ClockConfig(RCC_ClkInit_t *RCC_ClkInitStruct, uint32_t flashLatency)
{
 8000c18:	b480      	push	{r7}
 8000c1a:	b083      	sub	sp, #12
 8000c1c:	af00      	add	r7, sp, #0
 8000c1e:	6078      	str	r0, [r7, #4]
 8000c20:	6039      	str	r1, [r7, #0]

	/******************* Flash Config ****************************/
	//If you are increasing the CPU Frequency
	if(flashLatency > FLASH_GET_LATENCY())
 8000c22:	4b5d      	ldr	r3, [pc, #372]	; (8000d98 <RCC_ClockConfig+0x180>)
 8000c24:	681b      	ldr	r3, [r3, #0]
 8000c26:	f003 0307 	and.w	r3, r3, #7
 8000c2a:	683a      	ldr	r2, [r7, #0]
 8000c2c:	429a      	cmp	r2, r3
 8000c2e:	d910      	bls.n	8000c52 <RCC_ClockConfig+0x3a>
	{
		//Set the new latency value
		FLASH_SET_LATENCY(flashLatency);
 8000c30:	4b59      	ldr	r3, [pc, #356]	; (8000d98 <RCC_ClockConfig+0x180>)
 8000c32:	681b      	ldr	r3, [r3, #0]
 8000c34:	f023 0207 	bic.w	r2, r3, #7
 8000c38:	4957      	ldr	r1, [pc, #348]	; (8000d98 <RCC_ClockConfig+0x180>)
 8000c3a:	683b      	ldr	r3, [r7, #0]
 8000c3c:	4313      	orrs	r3, r2
 8000c3e:	600b      	str	r3, [r1, #0]

		//Check if the Latency value has been changed or not
		if(FLASH_GET_LATENCY() != flashLatency)
 8000c40:	4b55      	ldr	r3, [pc, #340]	; (8000d98 <RCC_ClockConfig+0x180>)
 8000c42:	681b      	ldr	r3, [r3, #0]
 8000c44:	f003 0307 	and.w	r3, r3, #7
 8000c48:	683a      	ldr	r2, [r7, #0]
 8000c4a:	429a      	cmp	r2, r3
 8000c4c:	d001      	beq.n	8000c52 <RCC_ClockConfig+0x3a>
		{
			return HAL_ERROR;
 8000c4e:	2301      	movs	r3, #1
 8000c50:	e09c      	b.n	8000d8c <RCC_ClockConfig+0x174>
		}
	}

	/******************* System Clock Config ***********************/
	if((RCC_ClkInitStruct->clockType & RCC_CLOCKTYPE_SYSCLK) == RCC_CLOCKTYPE_SYSCLK)
 8000c52:	687b      	ldr	r3, [r7, #4]
 8000c54:	681b      	ldr	r3, [r3, #0]
 8000c56:	f003 0301 	and.w	r3, r3, #1
 8000c5a:	2b00      	cmp	r3, #0
 8000c5c:	d050      	beq.n	8000d00 <RCC_ClockConfig+0xe8>
	{
		//If SYSCLOCK is HSI
		if(RCC_ClkInitStruct->sysClkSource == RCC_SYSCLKSOURCE_HSI)
 8000c5e:	687b      	ldr	r3, [r7, #4]
 8000c60:	685b      	ldr	r3, [r3, #4]
 8000c62:	2b00      	cmp	r3, #0
 8000c64:	d115      	bne.n	8000c92 <RCC_ClockConfig+0x7a>
		{
			//Checking if HSI is ready or not
			if(READ_BIT(RCC->CR,RCC_CR_HSIRDY) == 0U)
 8000c66:	4b4d      	ldr	r3, [pc, #308]	; (8000d9c <RCC_ClockConfig+0x184>)
 8000c68:	681b      	ldr	r3, [r3, #0]
 8000c6a:	f003 0302 	and.w	r3, r3, #2
 8000c6e:	2b00      	cmp	r3, #0
 8000c70:	d101      	bne.n	8000c76 <RCC_ClockConfig+0x5e>
			{
				return HAL_ERROR; //Return error if HSI is not ready
 8000c72:	2301      	movs	r3, #1
 8000c74:	e08a      	b.n	8000d8c <RCC_ClockConfig+0x174>
			}
			else
			{
				MODIFY_REG(RCC->CFGR,RCC_CFGR_SW,RCC_SYSCLKSOURCE_HSI); //Change Clock to HSI
 8000c76:	4b49      	ldr	r3, [pc, #292]	; (8000d9c <RCC_ClockConfig+0x184>)
 8000c78:	689b      	ldr	r3, [r3, #8]
 8000c7a:	4a48      	ldr	r2, [pc, #288]	; (8000d9c <RCC_ClockConfig+0x184>)
 8000c7c:	f023 0303 	bic.w	r3, r3, #3
 8000c80:	6093      	str	r3, [r2, #8]
			}

			//Wait until the System Clock Changes to HSI
			while(RCC_GET_SYSCLK_SRC() != RCC_CFGR_SWS_HSI);
 8000c82:	bf00      	nop
 8000c84:	4b45      	ldr	r3, [pc, #276]	; (8000d9c <RCC_ClockConfig+0x184>)
 8000c86:	689b      	ldr	r3, [r3, #8]
 8000c88:	f003 030c 	and.w	r3, r3, #12
 8000c8c:	2b00      	cmp	r3, #0
 8000c8e:	d1f9      	bne.n	8000c84 <RCC_ClockConfig+0x6c>
 8000c90:	e036      	b.n	8000d00 <RCC_ClockConfig+0xe8>
		}
		else if(RCC_ClkInitStruct->sysClkSource == RCC_SYSCLKSOURCE_HSE)	//If SYSCLOCK is HSE
 8000c92:	687b      	ldr	r3, [r7, #4]
 8000c94:	685b      	ldr	r3, [r3, #4]
 8000c96:	2b01      	cmp	r3, #1
 8000c98:	d117      	bne.n	8000cca <RCC_ClockConfig+0xb2>
		{
			//Checking if HSE is ready or not
			if(READ_BIT(RCC->CR,RCC_CR_HSERDY) == 0U)
 8000c9a:	4b40      	ldr	r3, [pc, #256]	; (8000d9c <RCC_ClockConfig+0x184>)
 8000c9c:	681b      	ldr	r3, [r3, #0]
 8000c9e:	f403 3300 	and.w	r3, r3, #131072	; 0x20000
 8000ca2:	2b00      	cmp	r3, #0
 8000ca4:	d101      	bne.n	8000caa <RCC_ClockConfig+0x92>
			{
				return HAL_ERROR;	//Return error if HSE is not ready
 8000ca6:	2301      	movs	r3, #1
 8000ca8:	e070      	b.n	8000d8c <RCC_ClockConfig+0x174>
			}
			else
			{
				MODIFY_REG(RCC->CFGR,RCC_CFGR_SW,RCC_SYSCLKSOURCE_HSE); //Change Clock to HSE
 8000caa:	4b3c      	ldr	r3, [pc, #240]	; (8000d9c <RCC_ClockConfig+0x184>)
 8000cac:	689b      	ldr	r3, [r3, #8]
 8000cae:	f023 0303 	bic.w	r3, r3, #3
 8000cb2:	4a3a      	ldr	r2, [pc, #232]	; (8000d9c <RCC_ClockConfig+0x184>)
 8000cb4:	f043 0301 	orr.w	r3, r3, #1
 8000cb8:	6093      	str	r3, [r2, #8]
			}

			//Wait until the System Clock Changes to HSE
			while(RCC_GET_SYSCLK_SRC() != RCC_CFGR_SWS_HSE);
 8000cba:	bf00      	nop
 8000cbc:	4b37      	ldr	r3, [pc, #220]	; (8000d9c <RCC_ClockConfig+0x184>)
 8000cbe:	689b      	ldr	r3, [r3, #8]
 8000cc0:	f003 030c 	and.w	r3, r3, #12
 8000cc4:	2b04      	cmp	r3, #4
 8000cc6:	d1f9      	bne.n	8000cbc <RCC_ClockConfig+0xa4>
 8000cc8:	e01a      	b.n	8000d00 <RCC_ClockConfig+0xe8>
		}
		else if(RCC_ClkInitStruct->sysClkSource == RCC_SYSCLKSOURCE_PLL)
 8000cca:	687b      	ldr	r3, [r7, #4]
 8000ccc:	685b      	ldr	r3, [r3, #4]
 8000cce:	2b02      	cmp	r3, #2
 8000cd0:	d116      	bne.n	8000d00 <RCC_ClockConfig+0xe8>
		{
			//Checking if PLL is ready or not
			if(READ_BIT(RCC->CR,RCC_CR_PLLRDY) == 0U)
 8000cd2:	4b32      	ldr	r3, [pc, #200]	; (8000d9c <RCC_ClockConfig+0x184>)
 8000cd4:	681b      	ldr	r3, [r3, #0]
 8000cd6:	f003 7300 	and.w	r3, r3, #33554432	; 0x2000000
 8000cda:	2b00      	cmp	r3, #0
 8000cdc:	d101      	bne.n	8000ce2 <RCC_ClockConfig+0xca>
			{
				return HAL_ERROR;	//Return error if PLL is not ready
 8000cde:	2301      	movs	r3, #1
 8000ce0:	e054      	b.n	8000d8c <RCC_ClockConfig+0x174>
			}
			else
			{
				MODIFY_REG(RCC->CFGR,RCC_CFGR_SW,RCC_SYSCLKSOURCE_PLL);	//Change Clock source to PLL
 8000ce2:	4b2e      	ldr	r3, [pc, #184]	; (8000d9c <RCC_ClockConfig+0x184>)
 8000ce4:	689b      	ldr	r3, [r3, #8]
 8000ce6:	f023 0303 	bic.w	r3, r3, #3
 8000cea:	4a2c      	ldr	r2, [pc, #176]	; (8000d9c <RCC_ClockConfig+0x184>)
 8000cec:	f043 0302 	orr.w	r3, r3, #2
 8000cf0:	6093      	str	r3, [r2, #8]
			}

			//Wait until the System Clock Changes to PLL
			while(RCC_GET_SYSCLK_SRC() != RCC_CFGR_SWS_PLL);
 8000cf2:	bf00      	nop
 8000cf4:	4b29      	ldr	r3, [pc, #164]	; (8000d9c <RCC_ClockConfig+0x184>)
 8000cf6:	689b      	ldr	r3, [r3, #8]
 8000cf8:	f003 030c 	and.w	r3, r3, #12
 8000cfc:	2b08      	cmp	r3, #8
 8000cfe:	d1f9      	bne.n	8000cf4 <RCC_ClockConfig+0xdc>
		}
	}

	/******************* Flash Config ****************************/
	//If you are decreasing the CPU Frequency
	if(flashLatency < FLASH_GET_LATENCY())
 8000d00:	4b25      	ldr	r3, [pc, #148]	; (8000d98 <RCC_ClockConfig+0x180>)
 8000d02:	681b      	ldr	r3, [r3, #0]
 8000d04:	f003 0307 	and.w	r3, r3, #7
 8000d08:	683a      	ldr	r2, [r7, #0]
 8000d0a:	429a      	cmp	r2, r3
 8000d0c:	d210      	bcs.n	8000d30 <RCC_ClockConfig+0x118>
	{
		//Set the new latency value
		FLASH_SET_LATENCY(flashLatency);
 8000d0e:	4b22      	ldr	r3, [pc, #136]	; (8000d98 <RCC_ClockConfig+0x180>)
 8000d10:	681b      	ldr	r3, [r3, #0]
 8000d12:	f023 0207 	bic.w	r2, r3, #7
 8000d16:	4920      	ldr	r1, [pc, #128]	; (8000d98 <RCC_ClockConfig+0x180>)
 8000d18:	683b      	ldr	r3, [r7, #0]
 8000d1a:	4313      	orrs	r3, r2
 8000d1c:	600b      	str	r3, [r1, #0]

		//Check if the Latency value has been changed or not
		if(FLASH_GET_LATENCY() != flashLatency)
 8000d1e:	4b1e      	ldr	r3, [pc, #120]	; (8000d98 <RCC_ClockConfig+0x180>)
 8000d20:	681b      	ldr	r3, [r3, #0]
 8000d22:	f003 0307 	and.w	r3, r3, #7
 8000d26:	683a      	ldr	r2, [r7, #0]
 8000d28:	429a      	cmp	r2, r3
 8000d2a:	d001      	beq.n	8000d30 <RCC_ClockConfig+0x118>
		{
			return HAL_ERROR;
 8000d2c:	2301      	movs	r3, #1
 8000d2e:	e02d      	b.n	8000d8c <RCC_ClockConfig+0x174>
		}
	}

	/******************* AHB(HCLK) Clock Config ***********************/
	if((RCC_ClkInitStruct->clockType & RCC_CLOCKTYPE_HCLK) == RCC_CLOCKTYPE_HCLK)
 8000d30:	687b      	ldr	r3, [r7, #4]
 8000d32:	681b      	ldr	r3, [r3, #0]
 8000d34:	f003 0302 	and.w	r3, r3, #2
 8000d38:	2b00      	cmp	r3, #0
 8000d3a:	d008      	beq.n	8000d4e <RCC_ClockConfig+0x136>
	{
		MODIFY_REG(RCC->CFGR,RCC_CFGR_HPRE,RCC_ClkInitStruct->ahbClkDivider);
 8000d3c:	4b17      	ldr	r3, [pc, #92]	; (8000d9c <RCC_ClockConfig+0x184>)
 8000d3e:	689b      	ldr	r3, [r3, #8]
 8000d40:	f023 02f0 	bic.w	r2, r3, #240	; 0xf0
 8000d44:	687b      	ldr	r3, [r7, #4]
 8000d46:	689b      	ldr	r3, [r3, #8]
 8000d48:	4914      	ldr	r1, [pc, #80]	; (8000d9c <RCC_ClockConfig+0x184>)
 8000d4a:	4313      	orrs	r3, r2
 8000d4c:	608b      	str	r3, [r1, #8]
	}

	/****************** APB1(PCLK1) Clock Config **********************/
	if((RCC_ClkInitStruct->clockType & RCC_CLOCKTYPE_PCLK1) == RCC_CLOCKTYPE_PCLK1)
 8000d4e:	687b      	ldr	r3, [r7, #4]
 8000d50:	681b      	ldr	r3, [r3, #0]
 8000d52:	f003 0304 	and.w	r3, r3, #4
 8000d56:	2b00      	cmp	r3, #0
 8000d58:	d008      	beq.n	8000d6c <RCC_ClockConfig+0x154>
	{
		MODIFY_REG(RCC->CFGR,RCC_CFGR_PPRE1,RCC_ClkInitStruct->apb1ClkDivider);
 8000d5a:	4b10      	ldr	r3, [pc, #64]	; (8000d9c <RCC_ClockConfig+0x184>)
 8000d5c:	689b      	ldr	r3, [r3, #8]
 8000d5e:	f423 52e0 	bic.w	r2, r3, #7168	; 0x1c00
 8000d62:	687b      	ldr	r3, [r7, #4]
 8000d64:	68db      	ldr	r3, [r3, #12]
 8000d66:	490d      	ldr	r1, [pc, #52]	; (8000d9c <RCC_ClockConfig+0x184>)
 8000d68:	4313      	orrs	r3, r2
 8000d6a:	608b      	str	r3, [r1, #8]
	}

	/****************** APB2(PCLK2) Clock Config **********************/
	if((RCC_ClkInitStruct->clockType & RCC_CLOCKTYPE_PCLK2) == RCC_CLOCKTYPE_PCLK2)
 8000d6c:	687b      	ldr	r3, [r7, #4]
 8000d6e:	681b      	ldr	r3, [r3, #0]
 8000d70:	f003 0308 	and.w	r3, r3, #8
 8000d74:	2b00      	cmp	r3, #0
 8000d76:	d008      	beq.n	8000d8a <RCC_ClockConfig+0x172>
	{
		MODIFY_REG(RCC->CFGR,RCC_CFGR_PPRE2,RCC_ClkInitStruct->apb2ClkDivider);
 8000d78:	4b08      	ldr	r3, [pc, #32]	; (8000d9c <RCC_ClockConfig+0x184>)
 8000d7a:	689b      	ldr	r3, [r3, #8]
 8000d7c:	f423 4260 	bic.w	r2, r3, #57344	; 0xe000
 8000d80:	687b      	ldr	r3, [r7, #4]
 8000d82:	691b      	ldr	r3, [r3, #16]
 8000d84:	4905      	ldr	r1, [pc, #20]	; (8000d9c <RCC_ClockConfig+0x184>)
 8000d86:	4313      	orrs	r3, r2
 8000d88:	608b      	str	r3, [r1, #8]
	}

	return HAL_OK;
 8000d8a:	2300      	movs	r3, #0
}
 8000d8c:	4618      	mov	r0, r3
 8000d8e:	370c      	adds	r7, #12
 8000d90:	46bd      	mov	sp, r7
 8000d92:	f85d 7b04 	ldr.w	r7, [sp], #4
 8000d96:	4770      	bx	lr
 8000d98:	40023c00 	.word	0x40023c00
 8000d9c:	40023800 	.word	0x40023800

08000da0 <RCC_GetSysClockFreq>:
 *
 * RETURN		:	returns the system Clock Frequency
 *
 * **************************************************************************/
uint32_t RCC_GetSysClockFreq(void)
{
 8000da0:	b480      	push	{r7}
 8000da2:	b089      	sub	sp, #36	; 0x24
 8000da4:	af00      	add	r7, sp, #0
	uint32_t sysclkfeq = 0U;
 8000da6:	2300      	movs	r3, #0
 8000da8:	61fb      	str	r3, [r7, #28]
	uint32_t sysClkSrc, pllClkSrc;
	uint32_t pllvco, plln, pllp, pllm;

	sysClkSrc = RCC_GET_SYSCLK_SRC();		//Identify the System Clock Source
 8000daa:	4b2f      	ldr	r3, [pc, #188]	; (8000e68 <RCC_GetSysClockFreq+0xc8>)
 8000dac:	689b      	ldr	r3, [r3, #8]
 8000dae:	f003 030c 	and.w	r3, r3, #12
 8000db2:	61bb      	str	r3, [r7, #24]
	pllClkSrc = RCC_GET_PLL_OSC_SOURCE();	//Identify the PLL Clock Source
 8000db4:	4b2c      	ldr	r3, [pc, #176]	; (8000e68 <RCC_GetSysClockFreq+0xc8>)
 8000db6:	685b      	ldr	r3, [r3, #4]
 8000db8:	f403 0380 	and.w	r3, r3, #4194304	; 0x400000
 8000dbc:	617b      	str	r3, [r7, #20]

	if(sysClkSrc == RCC_CFGR_SWS_HSI)	//If System clock is HSI
 8000dbe:	69bb      	ldr	r3, [r7, #24]
 8000dc0:	2b00      	cmp	r3, #0
 8000dc2:	d101      	bne.n	8000dc8 <RCC_GetSysClockFreq+0x28>
	{
		return HSI_FREQ;
 8000dc4:	4b29      	ldr	r3, [pc, #164]	; (8000e6c <RCC_GetSysClockFreq+0xcc>)
 8000dc6:	e048      	b.n	8000e5a <RCC_GetSysClockFreq+0xba>
	}
	else if(sysClkSrc == RCC_CFGR_SWS_HSE)	//If System Clock is HSE
 8000dc8:	69bb      	ldr	r3, [r7, #24]
 8000dca:	2b04      	cmp	r3, #4
 8000dcc:	d101      	bne.n	8000dd2 <RCC_GetSysClockFreq+0x32>
	{
		return HSE_FREQ;
 8000dce:	4b28      	ldr	r3, [pc, #160]	; (8000e70 <RCC_GetSysClockFreq+0xd0>)
 8000dd0:	e043      	b.n	8000e5a <RCC_GetSysClockFreq+0xba>
	}
	else if(sysClkSrc == RCC_CFGR_SWS_PLL)	//If System Clock is PLL
 8000dd2:	69bb      	ldr	r3, [r7, #24]
 8000dd4:	2b08      	cmp	r3, #8
 8000dd6:	d13f      	bne.n	8000e58 <RCC_GetSysClockFreq+0xb8>
	{
		/* PLL_VCO = (HSE_VALUE or HSI_VALUE) * PLLN / PLLM
		   SYSCLK = PLL_VCO / PLLR
		*/

		if(pllClkSrc == RCC_PLLCFGR_PLLSRC_HSI)	//If HSI is Clock Source
 8000dd8:	697b      	ldr	r3, [r7, #20]
 8000dda:	2b00      	cmp	r3, #0
 8000ddc:	d11e      	bne.n	8000e1c <RCC_GetSysClockFreq+0x7c>
		{
			pllm = ((READ_BIT(RCC->PLLCFGR,RCC_PLLCFGR_PLLM)) >> RCC_PLLCFGR_PLLM_Pos);
 8000dde:	4b22      	ldr	r3, [pc, #136]	; (8000e68 <RCC_GetSysClockFreq+0xc8>)
 8000de0:	685b      	ldr	r3, [r3, #4]
 8000de2:	f003 033f 	and.w	r3, r3, #63	; 0x3f
 8000de6:	613b      	str	r3, [r7, #16]
			plln = ((READ_BIT(RCC->PLLCFGR,RCC_PLLCFGR_PLLN)) >> RCC_PLLCFGR_PLLN_Pos);
 8000de8:	4b1f      	ldr	r3, [pc, #124]	; (8000e68 <RCC_GetSysClockFreq+0xc8>)
 8000dea:	685b      	ldr	r3, [r3, #4]
 8000dec:	099b      	lsrs	r3, r3, #6
 8000dee:	f3c3 0308 	ubfx	r3, r3, #0, #9
 8000df2:	60fb      	str	r3, [r7, #12]

			pllvco = ((HSI_FREQ) * (plln/pllm));
 8000df4:	68fa      	ldr	r2, [r7, #12]
 8000df6:	693b      	ldr	r3, [r7, #16]
 8000df8:	fbb2 f3f3 	udiv	r3, r2, r3
 8000dfc:	4a1b      	ldr	r2, [pc, #108]	; (8000e6c <RCC_GetSysClockFreq+0xcc>)
 8000dfe:	fb02 f303 	mul.w	r3, r2, r3
 8000e02:	60bb      	str	r3, [r7, #8]

			pllp = ((READ_BIT(RCC->PLLCFGR, RCC_PLLCFGR_PLLP) >> RCC_PLLCFGR_PLLP_Pos));
 8000e04:	4b18      	ldr	r3, [pc, #96]	; (8000e68 <RCC_GetSysClockFreq+0xc8>)
 8000e06:	685b      	ldr	r3, [r3, #4]
 8000e08:	0c1b      	lsrs	r3, r3, #16
 8000e0a:	f003 0303 	and.w	r3, r3, #3
 8000e0e:	607b      	str	r3, [r7, #4]

			sysclkfeq = pllvco / pllp;
 8000e10:	68ba      	ldr	r2, [r7, #8]
 8000e12:	687b      	ldr	r3, [r7, #4]
 8000e14:	fbb2 f3f3 	udiv	r3, r2, r3
 8000e18:	61fb      	str	r3, [r7, #28]
 8000e1a:	e01d      	b.n	8000e58 <RCC_GetSysClockFreq+0xb8>
		}
		else	//If HSE is Clock Source
		{
			pllm = ((READ_BIT(RCC->PLLCFGR,RCC_PLLCFGR_PLLM)) >> RCC_PLLCFGR_PLLM_Pos);
 8000e1c:	4b12      	ldr	r3, [pc, #72]	; (8000e68 <RCC_GetSysClockFreq+0xc8>)
 8000e1e:	685b      	ldr	r3, [r3, #4]
 8000e20:	f003 033f 	and.w	r3, r3, #63	; 0x3f
 8000e24:	613b      	str	r3, [r7, #16]
			plln = ((READ_BIT(RCC->PLLCFGR,RCC_PLLCFGR_PLLN)) >> RCC_PLLCFGR_PLLN_Pos);
 8000e26:	4b10      	ldr	r3, [pc, #64]	; (8000e68 <RCC_GetSysClockFreq+0xc8>)
 8000e28:	685b      	ldr	r3, [r3, #4]
 8000e2a:	099b      	lsrs	r3, r3, #6
 8000e2c:	f3c3 0308 	ubfx	r3, r3, #0, #9
 8000e30:	60fb      	str	r3, [r7, #12]

			pllvco = ((HSE_FREQ) * (plln/pllm));
 8000e32:	68fa      	ldr	r2, [r7, #12]
 8000e34:	693b      	ldr	r3, [r7, #16]
 8000e36:	fbb2 f3f3 	udiv	r3, r2, r3
 8000e3a:	4a0d      	ldr	r2, [pc, #52]	; (8000e70 <RCC_GetSysClockFreq+0xd0>)
 8000e3c:	fb02 f303 	mul.w	r3, r2, r3
 8000e40:	60bb      	str	r3, [r7, #8]

			pllp = ((READ_BIT(RCC->PLLCFGR, RCC_PLLCFGR_PLLP) >> RCC_PLLCFGR_PLLP_Pos));
 8000e42:	4b09      	ldr	r3, [pc, #36]	; (8000e68 <RCC_GetSysClockFreq+0xc8>)
 8000e44:	685b      	ldr	r3, [r3, #4]
 8000e46:	0c1b      	lsrs	r3, r3, #16
 8000e48:	f003 0303 	and.w	r3, r3, #3
 8000e4c:	607b      	str	r3, [r7, #4]

			sysclkfeq = pllvco / pllp;
 8000e4e:	68ba      	ldr	r2, [r7, #8]
 8000e50:	687b      	ldr	r3, [r7, #4]
 8000e52:	fbb2 f3f3 	udiv	r3, r2, r3
 8000e56:	61fb      	str	r3, [r7, #28]
		}
	}
	return sysclkfeq;
 8000e58:	69fb      	ldr	r3, [r7, #28]
}
 8000e5a:	4618      	mov	r0, r3
 8000e5c:	3724      	adds	r7, #36	; 0x24
 8000e5e:	46bd      	mov	sp, r7
 8000e60:	f85d 7b04 	ldr.w	r7, [sp], #4
 8000e64:	4770      	bx	lr
 8000e66:	bf00      	nop
 8000e68:	40023800 	.word	0x40023800
 8000e6c:	00f42400 	.word	0x00f42400
 8000e70:	007a1200 	.word	0x007a1200

08000e74 <spiClockControl>:
 *
 * RETURN		:	void
 *
 * **************************************************************************/
void spiClockControl(SPI_TypeDef *SPIx, uint8_t EnorDi)
{
 8000e74:	b480      	push	{r7}
 8000e76:	b083      	sub	sp, #12
 8000e78:	af00      	add	r7, sp, #0
 8000e7a:	6078      	str	r0, [r7, #4]
 8000e7c:	460b      	mov	r3, r1
 8000e7e:	70fb      	strb	r3, [r7, #3]
	if(EnorDi == ENABLE)
 8000e80:	78fb      	ldrb	r3, [r7, #3]
 8000e82:	2b01      	cmp	r3, #1
 8000e84:	d120      	bne.n	8000ec8 <spiClockControl+0x54>
	{
		if(SPIx == SPI1)
 8000e86:	687b      	ldr	r3, [r7, #4]
 8000e88:	4a24      	ldr	r2, [pc, #144]	; (8000f1c <spiClockControl+0xa8>)
 8000e8a:	4293      	cmp	r3, r2
 8000e8c:	d106      	bne.n	8000e9c <spiClockControl+0x28>
		{
			RCC_SPI1_CLOCK_ENABLE();
 8000e8e:	4b24      	ldr	r3, [pc, #144]	; (8000f20 <spiClockControl+0xac>)
 8000e90:	6c5b      	ldr	r3, [r3, #68]	; 0x44
 8000e92:	4a23      	ldr	r2, [pc, #140]	; (8000f20 <spiClockControl+0xac>)
 8000e94:	f443 5380 	orr.w	r3, r3, #4096	; 0x1000
 8000e98:	6453      	str	r3, [r2, #68]	; 0x44
		{
			RCC_SPI3_CLOCK_DISABLE();
		}
	}

}
 8000e9a:	e038      	b.n	8000f0e <spiClockControl+0x9a>
		else if(SPIx == SPI2)
 8000e9c:	687b      	ldr	r3, [r7, #4]
 8000e9e:	4a21      	ldr	r2, [pc, #132]	; (8000f24 <spiClockControl+0xb0>)
 8000ea0:	4293      	cmp	r3, r2
 8000ea2:	d106      	bne.n	8000eb2 <spiClockControl+0x3e>
			 RCC_SPI2_CLOCK_ENABLE();
 8000ea4:	4b1e      	ldr	r3, [pc, #120]	; (8000f20 <spiClockControl+0xac>)
 8000ea6:	6c1b      	ldr	r3, [r3, #64]	; 0x40
 8000ea8:	4a1d      	ldr	r2, [pc, #116]	; (8000f20 <spiClockControl+0xac>)
 8000eaa:	f443 4380 	orr.w	r3, r3, #16384	; 0x4000
 8000eae:	6413      	str	r3, [r2, #64]	; 0x40
}
 8000eb0:	e02d      	b.n	8000f0e <spiClockControl+0x9a>
		else if(SPIx == SPI3)
 8000eb2:	687b      	ldr	r3, [r7, #4]
 8000eb4:	4a1c      	ldr	r2, [pc, #112]	; (8000f28 <spiClockControl+0xb4>)
 8000eb6:	4293      	cmp	r3, r2
 8000eb8:	d129      	bne.n	8000f0e <spiClockControl+0x9a>
			RCC_SPI3_CLOCK_ENABLE();
 8000eba:	4b19      	ldr	r3, [pc, #100]	; (8000f20 <spiClockControl+0xac>)
 8000ebc:	6c1b      	ldr	r3, [r3, #64]	; 0x40
 8000ebe:	4a18      	ldr	r2, [pc, #96]	; (8000f20 <spiClockControl+0xac>)
 8000ec0:	f443 4300 	orr.w	r3, r3, #32768	; 0x8000
 8000ec4:	6413      	str	r3, [r2, #64]	; 0x40
}
 8000ec6:	e022      	b.n	8000f0e <spiClockControl+0x9a>
	else if(EnorDi == DISABLE)
 8000ec8:	78fb      	ldrb	r3, [r7, #3]
 8000eca:	2b00      	cmp	r3, #0
 8000ecc:	d11f      	bne.n	8000f0e <spiClockControl+0x9a>
		if(SPIx == SPI1)
 8000ece:	687b      	ldr	r3, [r7, #4]
 8000ed0:	4a12      	ldr	r2, [pc, #72]	; (8000f1c <spiClockControl+0xa8>)
 8000ed2:	4293      	cmp	r3, r2
 8000ed4:	d106      	bne.n	8000ee4 <spiClockControl+0x70>
			RCC_SPI1_CLOCK_DISABLE();
 8000ed6:	4b12      	ldr	r3, [pc, #72]	; (8000f20 <spiClockControl+0xac>)
 8000ed8:	6c5b      	ldr	r3, [r3, #68]	; 0x44
 8000eda:	4a11      	ldr	r2, [pc, #68]	; (8000f20 <spiClockControl+0xac>)
 8000edc:	f423 5380 	bic.w	r3, r3, #4096	; 0x1000
 8000ee0:	6453      	str	r3, [r2, #68]	; 0x44
}
 8000ee2:	e014      	b.n	8000f0e <spiClockControl+0x9a>
		else if(SPIx == SPI2)
 8000ee4:	687b      	ldr	r3, [r7, #4]
 8000ee6:	4a0f      	ldr	r2, [pc, #60]	; (8000f24 <spiClockControl+0xb0>)
 8000ee8:	4293      	cmp	r3, r2
 8000eea:	d106      	bne.n	8000efa <spiClockControl+0x86>
			RCC_SPI2_CLOCK_DISABLE();
 8000eec:	4b0c      	ldr	r3, [pc, #48]	; (8000f20 <spiClockControl+0xac>)
 8000eee:	6c1b      	ldr	r3, [r3, #64]	; 0x40
 8000ef0:	4a0b      	ldr	r2, [pc, #44]	; (8000f20 <spiClockControl+0xac>)
 8000ef2:	f423 4380 	bic.w	r3, r3, #16384	; 0x4000
 8000ef6:	6413      	str	r3, [r2, #64]	; 0x40
}
 8000ef8:	e009      	b.n	8000f0e <spiClockControl+0x9a>
		else if(SPIx == SPI3)
 8000efa:	687b      	ldr	r3, [r7, #4]
 8000efc:	4a0a      	ldr	r2, [pc, #40]	; (8000f28 <spiClockControl+0xb4>)
 8000efe:	4293      	cmp	r3, r2
 8000f00:	d105      	bne.n	8000f0e <spiClockControl+0x9a>
			RCC_SPI3_CLOCK_DISABLE();
 8000f02:	4b07      	ldr	r3, [pc, #28]	; (8000f20 <spiClockControl+0xac>)
 8000f04:	6c1b      	ldr	r3, [r3, #64]	; 0x40
 8000f06:	4a06      	ldr	r2, [pc, #24]	; (8000f20 <spiClockControl+0xac>)
 8000f08:	f423 4300 	bic.w	r3, r3, #32768	; 0x8000
 8000f0c:	6413      	str	r3, [r2, #64]	; 0x40
}
 8000f0e:	bf00      	nop
 8000f10:	370c      	adds	r7, #12
 8000f12:	46bd      	mov	sp, r7
 8000f14:	f85d 7b04 	ldr.w	r7, [sp], #4
 8000f18:	4770      	bx	lr
 8000f1a:	bf00      	nop
 8000f1c:	40013000 	.word	0x40013000
 8000f20:	40023800 	.word	0x40023800
 8000f24:	40003800 	.word	0x40003800
 8000f28:	40003c00 	.word	0x40003c00

08000f2c <spiFlagCheck>:
 *
 * RETURN		:	uint8_t - 1 if flag is set and 0 if not
 *
 * **************************************************************************/
uint8_t spiFlagCheck(SPI_TypeDef *SPIx, SPI_Flag_t flag)
{
 8000f2c:	b480      	push	{r7}
 8000f2e:	b085      	sub	sp, #20
 8000f30:	af00      	add	r7, sp, #0
 8000f32:	6078      	str	r0, [r7, #4]
 8000f34:	460b      	mov	r3, r1
 8000f36:	70fb      	strb	r3, [r7, #3]
	uint8_t status;
	if(flag == SPI_RXNE_FLAG)
 8000f38:	78fb      	ldrb	r3, [r7, #3]
 8000f3a:	2b00      	cmp	r3, #0
 8000f3c:	d106      	bne.n	8000f4c <spiFlagCheck+0x20>
	{
		status = REG_READ_BIT(SPIx->SR,SPI_SR_RXNE_Pos);
 8000f3e:	687b      	ldr	r3, [r7, #4]
 8000f40:	689b      	ldr	r3, [r3, #8]
 8000f42:	b2db      	uxtb	r3, r3
 8000f44:	f003 0301 	and.w	r3, r3, #1
 8000f48:	73fb      	strb	r3, [r7, #15]
 8000f4a:	e03a      	b.n	8000fc2 <spiFlagCheck+0x96>
	}
	else if(flag == SPI_TXE_FLAG)
 8000f4c:	78fb      	ldrb	r3, [r7, #3]
 8000f4e:	2b01      	cmp	r3, #1
 8000f50:	d106      	bne.n	8000f60 <spiFlagCheck+0x34>
	{
		status = REG_READ_BIT(SPIx->SR,SPI_SR_TXE_Pos);
 8000f52:	687b      	ldr	r3, [r7, #4]
 8000f54:	689b      	ldr	r3, [r3, #8]
 8000f56:	b2db      	uxtb	r3, r3
 8000f58:	f003 0302 	and.w	r3, r3, #2
 8000f5c:	73fb      	strb	r3, [r7, #15]
 8000f5e:	e030      	b.n	8000fc2 <spiFlagCheck+0x96>
	}
	else if(flag == SPI_BSY_FLAG)
 8000f60:	78fb      	ldrb	r3, [r7, #3]
 8000f62:	2b02      	cmp	r3, #2
 8000f64:	d106      	bne.n	8000f74 <spiFlagCheck+0x48>
	{
		status = REG_READ_BIT(SPIx->SR,SPI_SR_BSY_Pos);
 8000f66:	687b      	ldr	r3, [r7, #4]
 8000f68:	689b      	ldr	r3, [r3, #8]
 8000f6a:	b2db      	uxtb	r3, r3
 8000f6c:	f023 037f 	bic.w	r3, r3, #127	; 0x7f
 8000f70:	73fb      	strb	r3, [r7, #15]
 8000f72:	e026      	b.n	8000fc2 <spiFlagCheck+0x96>
	}
	else if(flag == SPI_OVR_FLAG)
 8000f74:	78fb      	ldrb	r3, [r7, #3]
 8000f76:	2b03      	cmp	r3, #3
 8000f78:	d106      	bne.n	8000f88 <spiFlagCheck+0x5c>
	{
		status = REG_READ_BIT(SPIx->SR,SPI_SR_OVR_Pos);
 8000f7a:	687b      	ldr	r3, [r7, #4]
 8000f7c:	689b      	ldr	r3, [r3, #8]
 8000f7e:	b2db      	uxtb	r3, r3
 8000f80:	f003 0340 	and.w	r3, r3, #64	; 0x40
 8000f84:	73fb      	strb	r3, [r7, #15]
 8000f86:	e01c      	b.n	8000fc2 <spiFlagCheck+0x96>
	}
	else if(flag == SPI_TXEIE_FLAG)
 8000f88:	78fb      	ldrb	r3, [r7, #3]
 8000f8a:	2b04      	cmp	r3, #4
 8000f8c:	d106      	bne.n	8000f9c <spiFlagCheck+0x70>
	{
		status = REG_READ_BIT(SPIx->CR2,SPI_CR2_TXEIE_Pos);
 8000f8e:	687b      	ldr	r3, [r7, #4]
 8000f90:	685b      	ldr	r3, [r3, #4]
 8000f92:	b2db      	uxtb	r3, r3
 8000f94:	f023 037f 	bic.w	r3, r3, #127	; 0x7f
 8000f98:	73fb      	strb	r3, [r7, #15]
 8000f9a:	e012      	b.n	8000fc2 <spiFlagCheck+0x96>
	}
	else if(flag == SPI_RXNEIE_FLAG)
 8000f9c:	78fb      	ldrb	r3, [r7, #3]
 8000f9e:	2b05      	cmp	r3, #5
 8000fa0:	d106      	bne.n	8000fb0 <spiFlagCheck+0x84>
	{
		status = REG_READ_BIT(SPIx->CR2,SPI_CR2_RXNEIE_Pos);
 8000fa2:	687b      	ldr	r3, [r7, #4]
 8000fa4:	685b      	ldr	r3, [r3, #4]
 8000fa6:	b2db      	uxtb	r3, r3
 8000fa8:	f003 0340 	and.w	r3, r3, #64	; 0x40
 8000fac:	73fb      	strb	r3, [r7, #15]
 8000fae:	e008      	b.n	8000fc2 <spiFlagCheck+0x96>
	}
	else if(flag == SPI_ERRIE_FLAG)
 8000fb0:	78fb      	ldrb	r3, [r7, #3]
 8000fb2:	2b06      	cmp	r3, #6
 8000fb4:	d105      	bne.n	8000fc2 <spiFlagCheck+0x96>
	{
		status = REG_READ_BIT(SPIx->CR2,SPI_CR2_ERRIE_Pos);
 8000fb6:	687b      	ldr	r3, [r7, #4]
 8000fb8:	685b      	ldr	r3, [r3, #4]
 8000fba:	b2db      	uxtb	r3, r3
 8000fbc:	f003 0320 	and.w	r3, r3, #32
 8000fc0:	73fb      	strb	r3, [r7, #15]
	}
	return status;
 8000fc2:	7bfb      	ldrb	r3, [r7, #15]
}
 8000fc4:	4618      	mov	r0, r3
 8000fc6:	3714      	adds	r7, #20
 8000fc8:	46bd      	mov	sp, r7
 8000fca:	f85d 7b04 	ldr.w	r7, [sp], #4
 8000fce:	4770      	bx	lr

08000fd0 <spiInit>:
 *
 * RETURN		:	void
 *
 * **************************************************************************/
void spiInit(SPI_Handle_t *spiHandleStructure)
{
 8000fd0:	b580      	push	{r7, lr}
 8000fd2:	b082      	sub	sp, #8
 8000fd4:	af00      	add	r7, sp, #0
 8000fd6:	6078      	str	r0, [r7, #4]
	/******************* Enabling the Clock ***************************/
	spiClockControl(spiHandleStructure->SPIx, ENABLE);
 8000fd8:	687b      	ldr	r3, [r7, #4]
 8000fda:	681b      	ldr	r3, [r3, #0]
 8000fdc:	2101      	movs	r1, #1
 8000fde:	4618      	mov	r0, r3
 8000fe0:	f7ff ff48 	bl	8000e74 <spiClockControl>

	/*******************Configuring the Mode **************************/
	REG_SET_VAL(spiHandleStructure->SPIx->CR1,spiHandleStructure->Init.Mode,0x1,SPI_CR1_MSTR_Pos);
 8000fe4:	687b      	ldr	r3, [r7, #4]
 8000fe6:	681b      	ldr	r3, [r3, #0]
 8000fe8:	681a      	ldr	r2, [r3, #0]
 8000fea:	687b      	ldr	r3, [r7, #4]
 8000fec:	681b      	ldr	r3, [r3, #0]
 8000fee:	f022 0204 	bic.w	r2, r2, #4
 8000ff2:	601a      	str	r2, [r3, #0]
 8000ff4:	687b      	ldr	r3, [r7, #4]
 8000ff6:	681b      	ldr	r3, [r3, #0]
 8000ff8:	6819      	ldr	r1, [r3, #0]
 8000ffa:	687b      	ldr	r3, [r7, #4]
 8000ffc:	685b      	ldr	r3, [r3, #4]
 8000ffe:	009a      	lsls	r2, r3, #2
 8001000:	687b      	ldr	r3, [r7, #4]
 8001002:	681b      	ldr	r3, [r3, #0]
 8001004:	430a      	orrs	r2, r1
 8001006:	601a      	str	r2, [r3, #0]

	/*******************Configuring the Direction *******************/
	REG_SET_VAL(spiHandleStructure->SPIx->CR1,spiHandleStructure->Init.Direction,0x1,SPI_CR1_BIDIMODE_Pos);
 8001008:	687b      	ldr	r3, [r7, #4]
 800100a:	681b      	ldr	r3, [r3, #0]
 800100c:	681a      	ldr	r2, [r3, #0]
 800100e:	687b      	ldr	r3, [r7, #4]
 8001010:	681b      	ldr	r3, [r3, #0]
 8001012:	f422 4200 	bic.w	r2, r2, #32768	; 0x8000
 8001016:	601a      	str	r2, [r3, #0]
 8001018:	687b      	ldr	r3, [r7, #4]
 800101a:	681b      	ldr	r3, [r3, #0]
 800101c:	6819      	ldr	r1, [r3, #0]
 800101e:	687b      	ldr	r3, [r7, #4]
 8001020:	689b      	ldr	r3, [r3, #8]
 8001022:	03da      	lsls	r2, r3, #15
 8001024:	687b      	ldr	r3, [r7, #4]
 8001026:	681b      	ldr	r3, [r3, #0]
 8001028:	430a      	orrs	r2, r1
 800102a:	601a      	str	r2, [r3, #0]

	/*******************Configuring the Data Size *******************/
	REG_SET_VAL(spiHandleStructure->SPIx->CR1,spiHandleStructure->Init.Direction,0x1,SPI_CR1_DFF_Pos);
 800102c:	687b      	ldr	r3, [r7, #4]
 800102e:	681b      	ldr	r3, [r3, #0]
 8001030:	681a      	ldr	r2, [r3, #0]
 8001032:	687b      	ldr	r3, [r7, #4]
 8001034:	681b      	ldr	r3, [r3, #0]
 8001036:	f422 6200 	bic.w	r2, r2, #2048	; 0x800
 800103a:	601a      	str	r2, [r3, #0]
 800103c:	687b      	ldr	r3, [r7, #4]
 800103e:	681b      	ldr	r3, [r3, #0]
 8001040:	6819      	ldr	r1, [r3, #0]
 8001042:	687b      	ldr	r3, [r7, #4]
 8001044:	689b      	ldr	r3, [r3, #8]
 8001046:	02da      	lsls	r2, r3, #11
 8001048:	687b      	ldr	r3, [r7, #4]
 800104a:	681b      	ldr	r3, [r3, #0]
 800104c:	430a      	orrs	r2, r1
 800104e:	601a      	str	r2, [r3, #0]

	/*******************Configuring the Clock Polarity CPOL *********/
	REG_SET_VAL(spiHandleStructure->SPIx->CR1,spiHandleStructure->Init.CLKPolarity,0x1,SPI_CR1_CPOL_Pos);
 8001050:	687b      	ldr	r3, [r7, #4]
 8001052:	681b      	ldr	r3, [r3, #0]
 8001054:	681a      	ldr	r2, [r3, #0]
 8001056:	687b      	ldr	r3, [r7, #4]
 8001058:	681b      	ldr	r3, [r3, #0]
 800105a:	f022 0202 	bic.w	r2, r2, #2
 800105e:	601a      	str	r2, [r3, #0]
 8001060:	687b      	ldr	r3, [r7, #4]
 8001062:	681b      	ldr	r3, [r3, #0]
 8001064:	6819      	ldr	r1, [r3, #0]
 8001066:	687b      	ldr	r3, [r7, #4]
 8001068:	691b      	ldr	r3, [r3, #16]
 800106a:	005a      	lsls	r2, r3, #1
 800106c:	687b      	ldr	r3, [r7, #4]
 800106e:	681b      	ldr	r3, [r3, #0]
 8001070:	430a      	orrs	r2, r1
 8001072:	601a      	str	r2, [r3, #0]

	/*******************Configuring the Clock Phase CPHA *********/
	REG_SET_VAL(spiHandleStructure->SPIx->CR1,spiHandleStructure->Init.CLKPhase,0x1,SPI_CR1_CPHA_Pos);
 8001074:	687b      	ldr	r3, [r7, #4]
 8001076:	681b      	ldr	r3, [r3, #0]
 8001078:	681a      	ldr	r2, [r3, #0]
 800107a:	687b      	ldr	r3, [r7, #4]
 800107c:	681b      	ldr	r3, [r3, #0]
 800107e:	f022 0201 	bic.w	r2, r2, #1
 8001082:	601a      	str	r2, [r3, #0]
 8001084:	687b      	ldr	r3, [r7, #4]
 8001086:	681b      	ldr	r3, [r3, #0]
 8001088:	6819      	ldr	r1, [r3, #0]
 800108a:	687b      	ldr	r3, [r7, #4]
 800108c:	695a      	ldr	r2, [r3, #20]
 800108e:	687b      	ldr	r3, [r7, #4]
 8001090:	681b      	ldr	r3, [r3, #0]
 8001092:	430a      	orrs	r2, r1
 8001094:	601a      	str	r2, [r3, #0]

	/*******************Configuring the NSS **********************/
	if(spiHandleStructure->Init.NSS == SPI_NSS_SOFTWARE)
 8001096:	687b      	ldr	r3, [r7, #4]
 8001098:	699b      	ldr	r3, [r3, #24]
 800109a:	2b01      	cmp	r3, #1
 800109c:	d122      	bne.n	80010e4 <spiInit+0x114>
	{
		REG_SET_VAL(spiHandleStructure->SPIx->CR1,spiHandleStructure->Init.NSS,0x1,SPI_CR1_SSM_Pos); //Software Slave Management
 800109e:	687b      	ldr	r3, [r7, #4]
 80010a0:	681b      	ldr	r3, [r3, #0]
 80010a2:	681a      	ldr	r2, [r3, #0]
 80010a4:	687b      	ldr	r3, [r7, #4]
 80010a6:	681b      	ldr	r3, [r3, #0]
 80010a8:	f422 7200 	bic.w	r2, r2, #512	; 0x200
 80010ac:	601a      	str	r2, [r3, #0]
 80010ae:	687b      	ldr	r3, [r7, #4]
 80010b0:	681b      	ldr	r3, [r3, #0]
 80010b2:	6819      	ldr	r1, [r3, #0]
 80010b4:	687b      	ldr	r3, [r7, #4]
 80010b6:	699b      	ldr	r3, [r3, #24]
 80010b8:	025a      	lsls	r2, r3, #9
 80010ba:	687b      	ldr	r3, [r7, #4]
 80010bc:	681b      	ldr	r3, [r3, #0]
 80010be:	430a      	orrs	r2, r1
 80010c0:	601a      	str	r2, [r3, #0]
		REG_SET_VAL(spiHandleStructure->SPIx->CR1,0x1,0x1,SPI_CR1_SSI_Pos);		//Setting the SSI Bit high
 80010c2:	687b      	ldr	r3, [r7, #4]
 80010c4:	681b      	ldr	r3, [r3, #0]
 80010c6:	681a      	ldr	r2, [r3, #0]
 80010c8:	687b      	ldr	r3, [r7, #4]
 80010ca:	681b      	ldr	r3, [r3, #0]
 80010cc:	f422 7280 	bic.w	r2, r2, #256	; 0x100
 80010d0:	601a      	str	r2, [r3, #0]
 80010d2:	687b      	ldr	r3, [r7, #4]
 80010d4:	681b      	ldr	r3, [r3, #0]
 80010d6:	681a      	ldr	r2, [r3, #0]
 80010d8:	687b      	ldr	r3, [r7, #4]
 80010da:	681b      	ldr	r3, [r3, #0]
 80010dc:	f442 7280 	orr.w	r2, r2, #256	; 0x100
 80010e0:	601a      	str	r2, [r3, #0]
 80010e2:	e015      	b.n	8001110 <spiInit+0x140>
	}
	else if(spiHandleStructure->Init.NSS == SPI_NSS_HARDWARE)
 80010e4:	687b      	ldr	r3, [r7, #4]
 80010e6:	699b      	ldr	r3, [r3, #24]
 80010e8:	2b00      	cmp	r3, #0
 80010ea:	d111      	bne.n	8001110 <spiInit+0x140>
	{
		REG_SET_VAL(spiHandleStructure->SPIx->CR1,spiHandleStructure->Init.NSS,0x1,SPI_CR1_SSM_Pos); //Hardware Slave Management
 80010ec:	687b      	ldr	r3, [r7, #4]
 80010ee:	681b      	ldr	r3, [r3, #0]
 80010f0:	681a      	ldr	r2, [r3, #0]
 80010f2:	687b      	ldr	r3, [r7, #4]
 80010f4:	681b      	ldr	r3, [r3, #0]
 80010f6:	f422 7200 	bic.w	r2, r2, #512	; 0x200
 80010fa:	601a      	str	r2, [r3, #0]
 80010fc:	687b      	ldr	r3, [r7, #4]
 80010fe:	681b      	ldr	r3, [r3, #0]
 8001100:	6819      	ldr	r1, [r3, #0]
 8001102:	687b      	ldr	r3, [r7, #4]
 8001104:	699b      	ldr	r3, [r3, #24]
 8001106:	025a      	lsls	r2, r3, #9
 8001108:	687b      	ldr	r3, [r7, #4]
 800110a:	681b      	ldr	r3, [r3, #0]
 800110c:	430a      	orrs	r2, r1
 800110e:	601a      	str	r2, [r3, #0]
	}

	/******************Setting the BaudRate Prescalar *************/
	REG_SET_VAL(spiHandleStructure->SPIx->CR1,spiHandleStructure->Init.BaudRatePrescaler,0x7,SPI_CR1_BR_Pos);
 8001110:	687b      	ldr	r3, [r7, #4]
 8001112:	681b      	ldr	r3, [r3, #0]
 8001114:	681a      	ldr	r2, [r3, #0]
 8001116:	687b      	ldr	r3, [r7, #4]
 8001118:	681b      	ldr	r3, [r3, #0]
 800111a:	f022 0238 	bic.w	r2, r2, #56	; 0x38
 800111e:	601a      	str	r2, [r3, #0]
 8001120:	687b      	ldr	r3, [r7, #4]
 8001122:	681b      	ldr	r3, [r3, #0]
 8001124:	6819      	ldr	r1, [r3, #0]
 8001126:	687b      	ldr	r3, [r7, #4]
 8001128:	69db      	ldr	r3, [r3, #28]
 800112a:	00da      	lsls	r2, r3, #3
 800112c:	687b      	ldr	r3, [r7, #4]
 800112e:	681b      	ldr	r3, [r3, #0]
 8001130:	430a      	orrs	r2, r1
 8001132:	601a      	str	r2, [r3, #0]

	/*****************Configuring MSB/LSB First ******************/
	REG_SET_VAL(spiHandleStructure->SPIx->CR1,spiHandleStructure->Init.FirstBit,0x1,SPI_CR1_LSBFIRST_Pos);
 8001134:	687b      	ldr	r3, [r7, #4]
 8001136:	681b      	ldr	r3, [r3, #0]
 8001138:	681a      	ldr	r2, [r3, #0]
 800113a:	687b      	ldr	r3, [r7, #4]
 800113c:	681b      	ldr	r3, [r3, #0]
 800113e:	f022 0280 	bic.w	r2, r2, #128	; 0x80
 8001142:	601a      	str	r2, [r3, #0]
 8001144:	687b      	ldr	r3, [r7, #4]
 8001146:	681b      	ldr	r3, [r3, #0]
 8001148:	6819      	ldr	r1, [r3, #0]
 800114a:	687b      	ldr	r3, [r7, #4]
 800114c:	6a1b      	ldr	r3, [r3, #32]
 800114e:	01da      	lsls	r2, r3, #7
 8001150:	687b      	ldr	r3, [r7, #4]
 8001152:	681b      	ldr	r3, [r3, #0]
 8001154:	430a      	orrs	r2, r1
 8001156:	601a      	str	r2, [r3, #0]
}
 8001158:	bf00      	nop
 800115a:	3708      	adds	r7, #8
 800115c:	46bd      	mov	sp, r7
 800115e:	bd80      	pop	{r7, pc}

08001160 <spiTransmit>:
 *
 * RETURN		:	Status_t
 *
 * **************************************************************************/
Status_t spiTransmit(SPI_Handle_t *spiHandleStructure, uint8_t *pTxData, uint16_t sizeOfData, uint32_t timeout)
{
 8001160:	b580      	push	{r7, lr}
 8001162:	b086      	sub	sp, #24
 8001164:	af00      	add	r7, sp, #0
 8001166:	60f8      	str	r0, [r7, #12]
 8001168:	60b9      	str	r1, [r7, #8]
 800116a:	603b      	str	r3, [r7, #0]
 800116c:	4613      	mov	r3, r2
 800116e:	80fb      	strh	r3, [r7, #6]
	uint32_t ticksStart;

	//Configuration SPI to transmit only if direction is 1 line
	if(spiHandleStructure->Init.Direction == SPI_DIRECTION_1LINE)
 8001170:	68fb      	ldr	r3, [r7, #12]
 8001172:	689b      	ldr	r3, [r3, #8]
 8001174:	2b01      	cmp	r3, #1
 8001176:	d10f      	bne.n	8001198 <spiTransmit+0x38>
	{
		//Setting the BIDIOE bit to transmit only
		REG_SET_VAL(spiHandleStructure->SPIx->CR1,0x1,0x1,SPI_CR1_BIDIOE_Pos);
 8001178:	68fb      	ldr	r3, [r7, #12]
 800117a:	681b      	ldr	r3, [r3, #0]
 800117c:	681a      	ldr	r2, [r3, #0]
 800117e:	68fb      	ldr	r3, [r7, #12]
 8001180:	681b      	ldr	r3, [r3, #0]
 8001182:	f422 4280 	bic.w	r2, r2, #16384	; 0x4000
 8001186:	601a      	str	r2, [r3, #0]
 8001188:	68fb      	ldr	r3, [r7, #12]
 800118a:	681b      	ldr	r3, [r3, #0]
 800118c:	681a      	ldr	r2, [r3, #0]
 800118e:	68fb      	ldr	r3, [r7, #12]
 8001190:	681b      	ldr	r3, [r3, #0]
 8001192:	f442 4280 	orr.w	r2, r2, #16384	; 0x4000
 8001196:	601a      	str	r2, [r3, #0]
	}

	//Enabling the SPI peripheral
	SPI_ENABLE(spiHandleStructure);
 8001198:	68fb      	ldr	r3, [r7, #12]
 800119a:	681b      	ldr	r3, [r3, #0]
 800119c:	681a      	ldr	r2, [r3, #0]
 800119e:	68fb      	ldr	r3, [r7, #12]
 80011a0:	681b      	ldr	r3, [r3, #0]
 80011a2:	f042 0240 	orr.w	r2, r2, #64	; 0x40
 80011a6:	601a      	str	r2, [r3, #0]

	while(sizeOfData > 0)
 80011a8:	e04c      	b.n	8001244 <spiTransmit+0xe4>
	{
		if(spiHandleStructure->Init.DataSize == SPI_DATA_SIZE_16BIT) //if data is 16 bit
 80011aa:	68fb      	ldr	r3, [r7, #12]
 80011ac:	68db      	ldr	r3, [r3, #12]
 80011ae:	2b01      	cmp	r3, #1
 80011b0:	d122      	bne.n	80011f8 <spiTransmit+0x98>
		{
			//Writing 16 bits of data to the Data Register
			REG_WRITE(spiHandleStructure->SPIx->DR, *(uint16_t*)pTxData);
 80011b2:	68bb      	ldr	r3, [r7, #8]
 80011b4:	881a      	ldrh	r2, [r3, #0]
 80011b6:	68fb      	ldr	r3, [r7, #12]
 80011b8:	681b      	ldr	r3, [r3, #0]
 80011ba:	60da      	str	r2, [r3, #12]

			//Wait until TXE Flag is set
			ticksStart = getTicks();
 80011bc:	f000 fb36 	bl	800182c <getTicks>
 80011c0:	6178      	str	r0, [r7, #20]

			while(!(spiFlagCheck(spiHandleStructure->SPIx, SPI_TXE_FLAG)))
 80011c2:	e009      	b.n	80011d8 <spiTransmit+0x78>
			{
				if((ticksStart - getTicks()) > timeout)
 80011c4:	f000 fb32 	bl	800182c <getTicks>
 80011c8:	4602      	mov	r2, r0
 80011ca:	697b      	ldr	r3, [r7, #20]
 80011cc:	1a9b      	subs	r3, r3, r2
 80011ce:	683a      	ldr	r2, [r7, #0]
 80011d0:	429a      	cmp	r2, r3
 80011d2:	d201      	bcs.n	80011d8 <spiTransmit+0x78>
				{
					return HAL_TIMEOUT;
 80011d4:	2302      	movs	r3, #2
 80011d6:	e058      	b.n	800128a <spiTransmit+0x12a>
			while(!(spiFlagCheck(spiHandleStructure->SPIx, SPI_TXE_FLAG)))
 80011d8:	68fb      	ldr	r3, [r7, #12]
 80011da:	681b      	ldr	r3, [r3, #0]
 80011dc:	2101      	movs	r1, #1
 80011de:	4618      	mov	r0, r3
 80011e0:	f7ff fea4 	bl	8000f2c <spiFlagCheck>
 80011e4:	4603      	mov	r3, r0
 80011e6:	2b00      	cmp	r3, #0
 80011e8:	d0ec      	beq.n	80011c4 <spiTransmit+0x64>
				}
			}

			//Subtracting size of data by two as 16 bits of data has been transmitted
			sizeOfData = sizeOfData - 2;
 80011ea:	88fb      	ldrh	r3, [r7, #6]
 80011ec:	3b02      	subs	r3, #2
 80011ee:	80fb      	strh	r3, [r7, #6]

			//Incrementing the TxData
			(uint16_t*)pTxData++;
 80011f0:	68bb      	ldr	r3, [r7, #8]
 80011f2:	3301      	adds	r3, #1
 80011f4:	60bb      	str	r3, [r7, #8]
 80011f6:	e025      	b.n	8001244 <spiTransmit+0xe4>

		}
		else if(spiHandleStructure->Init.DataSize == SPI_DATA_SIZE_8BIT)
 80011f8:	68fb      	ldr	r3, [r7, #12]
 80011fa:	68db      	ldr	r3, [r3, #12]
 80011fc:	2b00      	cmp	r3, #0
 80011fe:	d121      	bne.n	8001244 <spiTransmit+0xe4>
		{
			//Writing 8 bits of data to the Data Register
			REG_WRITE(spiHandleStructure->SPIx->DR,*pTxData);
 8001200:	68bb      	ldr	r3, [r7, #8]
 8001202:	781a      	ldrb	r2, [r3, #0]
 8001204:	68fb      	ldr	r3, [r7, #12]
 8001206:	681b      	ldr	r3, [r3, #0]
 8001208:	60da      	str	r2, [r3, #12]

			//Wait until TXE Flag is set
			ticksStart = getTicks();
 800120a:	f000 fb0f 	bl	800182c <getTicks>
 800120e:	6178      	str	r0, [r7, #20]

			while(!(spiFlagCheck(spiHandleStructure->SPIx, SPI_TXE_FLAG)))
 8001210:	e009      	b.n	8001226 <spiTransmit+0xc6>
			{
				if((ticksStart - getTicks()) > timeout)
 8001212:	f000 fb0b 	bl	800182c <getTicks>
 8001216:	4602      	mov	r2, r0
 8001218:	697b      	ldr	r3, [r7, #20]
 800121a:	1a9b      	subs	r3, r3, r2
 800121c:	683a      	ldr	r2, [r7, #0]
 800121e:	429a      	cmp	r2, r3
 8001220:	d201      	bcs.n	8001226 <spiTransmit+0xc6>
				{
					return HAL_TIMEOUT;
 8001222:	2302      	movs	r3, #2
 8001224:	e031      	b.n	800128a <spiTransmit+0x12a>
			while(!(spiFlagCheck(spiHandleStructure->SPIx, SPI_TXE_FLAG)))
 8001226:	68fb      	ldr	r3, [r7, #12]
 8001228:	681b      	ldr	r3, [r3, #0]
 800122a:	2101      	movs	r1, #1
 800122c:	4618      	mov	r0, r3
 800122e:	f7ff fe7d 	bl	8000f2c <spiFlagCheck>
 8001232:	4603      	mov	r3, r0
 8001234:	2b00      	cmp	r3, #0
 8001236:	d0ec      	beq.n	8001212 <spiTransmit+0xb2>
				}
			}

			//Subtracting size of data by 1 as 8 bits of data has been transmitted
			sizeOfData--;
 8001238:	88fb      	ldrh	r3, [r7, #6]
 800123a:	3b01      	subs	r3, #1
 800123c:	80fb      	strh	r3, [r7, #6]

			//Incrementing the TxData
			pTxData++;
 800123e:	68bb      	ldr	r3, [r7, #8]
 8001240:	3301      	adds	r3, #1
 8001242:	60bb      	str	r3, [r7, #8]
	while(sizeOfData > 0)
 8001244:	88fb      	ldrh	r3, [r7, #6]
 8001246:	2b00      	cmp	r3, #0
 8001248:	d1af      	bne.n	80011aa <spiTransmit+0x4a>
		}
	}

	//Wait until BSY FLAG is 0
	ticksStart = getTicks();
 800124a:	f000 faef 	bl	800182c <getTicks>
 800124e:	6178      	str	r0, [r7, #20]

	while(spiFlagCheck(spiHandleStructure->SPIx, SPI_BSY_FLAG))
 8001250:	e009      	b.n	8001266 <spiTransmit+0x106>
	{
		if((ticksStart - getTicks()) > timeout)
 8001252:	f000 faeb 	bl	800182c <getTicks>
 8001256:	4602      	mov	r2, r0
 8001258:	697b      	ldr	r3, [r7, #20]
 800125a:	1a9b      	subs	r3, r3, r2
 800125c:	683a      	ldr	r2, [r7, #0]
 800125e:	429a      	cmp	r2, r3
 8001260:	d201      	bcs.n	8001266 <spiTransmit+0x106>
		{
			return HAL_TIMEOUT;
 8001262:	2302      	movs	r3, #2
 8001264:	e011      	b.n	800128a <spiTransmit+0x12a>
	while(spiFlagCheck(spiHandleStructure->SPIx, SPI_BSY_FLAG))
 8001266:	68fb      	ldr	r3, [r7, #12]
 8001268:	681b      	ldr	r3, [r3, #0]
 800126a:	2102      	movs	r1, #2
 800126c:	4618      	mov	r0, r3
 800126e:	f7ff fe5d 	bl	8000f2c <spiFlagCheck>
 8001272:	4603      	mov	r3, r0
 8001274:	2b00      	cmp	r3, #0
 8001276:	d1ec      	bne.n	8001252 <spiTransmit+0xf2>
		}
	}

	//Disabling the SPI peripheral
	SPI_DISABLE(spiHandleStructure);
 8001278:	68fb      	ldr	r3, [r7, #12]
 800127a:	681b      	ldr	r3, [r3, #0]
 800127c:	681a      	ldr	r2, [r3, #0]
 800127e:	68fb      	ldr	r3, [r7, #12]
 8001280:	681b      	ldr	r3, [r3, #0]
 8001282:	f022 0240 	bic.w	r2, r2, #64	; 0x40
 8001286:	601a      	str	r2, [r3, #0]

	return HAL_OK;
 8001288:	2300      	movs	r3, #0
}
 800128a:	4618      	mov	r0, r3
 800128c:	3718      	adds	r7, #24
 800128e:	46bd      	mov	sp, r7
 8001290:	bd80      	pop	{r7, pc}
	...

08001294 <gpioInit>:
 *
 * RETURN		:	void
 *
 * **************************************************************************/
void gpioInit(GPIO_TypeDef *GPIOx, GPIO_Init_t *GPIO_InitStruct)
{
 8001294:	b480      	push	{r7}
 8001296:	b085      	sub	sp, #20
 8001298:	af00      	add	r7, sp, #0
 800129a:	6078      	str	r0, [r7, #4]
 800129c:	6039      	str	r1, [r7, #0]
	/*******************Configuring the Mode of GPIO***********************/
	if(((GPIO_InitStruct->Mode) == GPIO_MODE_OUTPUT_PUSHPULL) || ((GPIO_InitStruct->Mode) == GPIO_MODE_OUTPUT_OD))	//Checking if mode is output
 800129e:	683b      	ldr	r3, [r7, #0]
 80012a0:	685b      	ldr	r3, [r3, #4]
 80012a2:	2b02      	cmp	r3, #2
 80012a4:	d003      	beq.n	80012ae <gpioInit+0x1a>
 80012a6:	683b      	ldr	r3, [r7, #0]
 80012a8:	685b      	ldr	r3, [r3, #4]
 80012aa:	2b03      	cmp	r3, #3
 80012ac:	d15c      	bne.n	8001368 <gpioInit+0xd4>
	{
		//Setting the GPIO to Output Mode
		REG_SET_VAL(GPIOx->MODER,0x1,0x3,(2*(GPIO_InitStruct->Pin)));
 80012ae:	687b      	ldr	r3, [r7, #4]
 80012b0:	681b      	ldr	r3, [r3, #0]
 80012b2:	683a      	ldr	r2, [r7, #0]
 80012b4:	6812      	ldr	r2, [r2, #0]
 80012b6:	0052      	lsls	r2, r2, #1
 80012b8:	2103      	movs	r1, #3
 80012ba:	fa01 f202 	lsl.w	r2, r1, r2
 80012be:	43d2      	mvns	r2, r2
 80012c0:	401a      	ands	r2, r3
 80012c2:	687b      	ldr	r3, [r7, #4]
 80012c4:	601a      	str	r2, [r3, #0]
 80012c6:	687b      	ldr	r3, [r7, #4]
 80012c8:	681b      	ldr	r3, [r3, #0]
 80012ca:	683a      	ldr	r2, [r7, #0]
 80012cc:	6812      	ldr	r2, [r2, #0]
 80012ce:	0052      	lsls	r2, r2, #1
 80012d0:	2101      	movs	r1, #1
 80012d2:	fa01 f202 	lsl.w	r2, r1, r2
 80012d6:	431a      	orrs	r2, r3
 80012d8:	687b      	ldr	r3, [r7, #4]
 80012da:	601a      	str	r2, [r3, #0]

		if(((GPIO_InitStruct->Mode) == GPIO_MODE_OUTPUT_PUSHPULL))	//Checking if output mode is push pull
 80012dc:	683b      	ldr	r3, [r7, #0]
 80012de:	685b      	ldr	r3, [r3, #4]
 80012e0:	2b02      	cmp	r3, #2
 80012e2:	d10f      	bne.n	8001304 <gpioInit+0x70>
		{
			//Setting GPIO to PushPull
			REG_SET_VAL(GPIOx->OTYPER,0x0,0x1,GPIO_InitStruct->Pin);
 80012e4:	687b      	ldr	r3, [r7, #4]
 80012e6:	685b      	ldr	r3, [r3, #4]
 80012e8:	683a      	ldr	r2, [r7, #0]
 80012ea:	6812      	ldr	r2, [r2, #0]
 80012ec:	2101      	movs	r1, #1
 80012ee:	fa01 f202 	lsl.w	r2, r1, r2
 80012f2:	43d2      	mvns	r2, r2
 80012f4:	401a      	ands	r2, r3
 80012f6:	687b      	ldr	r3, [r7, #4]
 80012f8:	605a      	str	r2, [r3, #4]
 80012fa:	687b      	ldr	r3, [r7, #4]
 80012fc:	685a      	ldr	r2, [r3, #4]
 80012fe:	687b      	ldr	r3, [r7, #4]
 8001300:	605a      	str	r2, [r3, #4]
 8001302:	e018      	b.n	8001336 <gpioInit+0xa2>
		}
		else if(((GPIO_InitStruct->Mode) == GPIO_MODE_OUTPUT_OD))	//Checking if output mode is Open Drain
 8001304:	683b      	ldr	r3, [r7, #0]
 8001306:	685b      	ldr	r3, [r3, #4]
 8001308:	2b03      	cmp	r3, #3
 800130a:	d114      	bne.n	8001336 <gpioInit+0xa2>
		{
			//Setting the GPIO to Open Drain
			REG_SET_VAL(GPIOx->OTYPER,0x1,0x1,GPIO_InitStruct->Pin);
 800130c:	687b      	ldr	r3, [r7, #4]
 800130e:	685b      	ldr	r3, [r3, #4]
 8001310:	683a      	ldr	r2, [r7, #0]
 8001312:	6812      	ldr	r2, [r2, #0]
 8001314:	2101      	movs	r1, #1
 8001316:	fa01 f202 	lsl.w	r2, r1, r2
 800131a:	43d2      	mvns	r2, r2
 800131c:	401a      	ands	r2, r3
 800131e:	687b      	ldr	r3, [r7, #4]
 8001320:	605a      	str	r2, [r3, #4]
 8001322:	687b      	ldr	r3, [r7, #4]
 8001324:	685b      	ldr	r3, [r3, #4]
 8001326:	683a      	ldr	r2, [r7, #0]
 8001328:	6812      	ldr	r2, [r2, #0]
 800132a:	2101      	movs	r1, #1
 800132c:	fa01 f202 	lsl.w	r2, r1, r2
 8001330:	431a      	orrs	r2, r3
 8001332:	687b      	ldr	r3, [r7, #4]
 8001334:	605a      	str	r2, [r3, #4]
		}
		/***************** Configuring the Speed *************************/
		REG_SET_VAL(GPIOx->OSPEEDR,GPIO_InitStruct->Speed,0x3,(2*(GPIO_InitStruct->Pin))); //Should be configured only if GPIO is in output mode
 8001336:	687b      	ldr	r3, [r7, #4]
 8001338:	689b      	ldr	r3, [r3, #8]
 800133a:	683a      	ldr	r2, [r7, #0]
 800133c:	6812      	ldr	r2, [r2, #0]
 800133e:	0052      	lsls	r2, r2, #1
 8001340:	2103      	movs	r1, #3
 8001342:	fa01 f202 	lsl.w	r2, r1, r2
 8001346:	43d2      	mvns	r2, r2
 8001348:	401a      	ands	r2, r3
 800134a:	687b      	ldr	r3, [r7, #4]
 800134c:	609a      	str	r2, [r3, #8]
 800134e:	687b      	ldr	r3, [r7, #4]
 8001350:	689a      	ldr	r2, [r3, #8]
 8001352:	683b      	ldr	r3, [r7, #0]
 8001354:	68d9      	ldr	r1, [r3, #12]
 8001356:	683b      	ldr	r3, [r7, #0]
 8001358:	681b      	ldr	r3, [r3, #0]
 800135a:	005b      	lsls	r3, r3, #1
 800135c:	fa01 f303 	lsl.w	r3, r1, r3
 8001360:	431a      	orrs	r2, r3
 8001362:	687b      	ldr	r3, [r7, #4]
 8001364:	609a      	str	r2, [r3, #8]
 8001366:	e190      	b.n	800168a <gpioInit+0x3f6>
	}
	else if(((GPIO_InitStruct->Mode) == GPIO_MODE_ALTFUNC_PUSHPULL) || ((GPIO_InitStruct->Mode) == GPIO_MODE_ALTFUNC_OD))	//Checking if mode is Alternate Function
 8001368:	683b      	ldr	r3, [r7, #0]
 800136a:	685b      	ldr	r3, [r3, #4]
 800136c:	2b04      	cmp	r3, #4
 800136e:	d003      	beq.n	8001378 <gpioInit+0xe4>
 8001370:	683b      	ldr	r3, [r7, #0]
 8001372:	685b      	ldr	r3, [r3, #4]
 8001374:	2b05      	cmp	r3, #5
 8001376:	d179      	bne.n	800146c <gpioInit+0x1d8>
	{
		//Setting the GPIO to Alternate Function Mode
		REG_SET_VAL(GPIOx->MODER,0x2,0x3,(2*(GPIO_InitStruct->Pin)));
 8001378:	687b      	ldr	r3, [r7, #4]
 800137a:	681b      	ldr	r3, [r3, #0]
 800137c:	683a      	ldr	r2, [r7, #0]
 800137e:	6812      	ldr	r2, [r2, #0]
 8001380:	0052      	lsls	r2, r2, #1
 8001382:	2103      	movs	r1, #3
 8001384:	fa01 f202 	lsl.w	r2, r1, r2
 8001388:	43d2      	mvns	r2, r2
 800138a:	401a      	ands	r2, r3
 800138c:	687b      	ldr	r3, [r7, #4]
 800138e:	601a      	str	r2, [r3, #0]
 8001390:	687b      	ldr	r3, [r7, #4]
 8001392:	681b      	ldr	r3, [r3, #0]
 8001394:	683a      	ldr	r2, [r7, #0]
 8001396:	6812      	ldr	r2, [r2, #0]
 8001398:	0052      	lsls	r2, r2, #1
 800139a:	2102      	movs	r1, #2
 800139c:	fa01 f202 	lsl.w	r2, r1, r2
 80013a0:	431a      	orrs	r2, r3
 80013a2:	687b      	ldr	r3, [r7, #4]
 80013a4:	601a      	str	r2, [r3, #0]

		if(((GPIO_InitStruct->Mode) == GPIO_MODE_ALTFUNC_PUSHPULL))	//Checking if output mode is push pull
 80013a6:	683b      	ldr	r3, [r7, #0]
 80013a8:	685b      	ldr	r3, [r3, #4]
 80013aa:	2b04      	cmp	r3, #4
 80013ac:	d10f      	bne.n	80013ce <gpioInit+0x13a>
		{
			//Setting GPIO to PushPull
			REG_SET_VAL(GPIOx->OTYPER,0x0,0x1,GPIO_InitStruct->Pin);
 80013ae:	687b      	ldr	r3, [r7, #4]
 80013b0:	685b      	ldr	r3, [r3, #4]
 80013b2:	683a      	ldr	r2, [r7, #0]
 80013b4:	6812      	ldr	r2, [r2, #0]
 80013b6:	2101      	movs	r1, #1
 80013b8:	fa01 f202 	lsl.w	r2, r1, r2
 80013bc:	43d2      	mvns	r2, r2
 80013be:	401a      	ands	r2, r3
 80013c0:	687b      	ldr	r3, [r7, #4]
 80013c2:	605a      	str	r2, [r3, #4]
 80013c4:	687b      	ldr	r3, [r7, #4]
 80013c6:	685a      	ldr	r2, [r3, #4]
 80013c8:	687b      	ldr	r3, [r7, #4]
 80013ca:	605a      	str	r2, [r3, #4]
 80013cc:	e018      	b.n	8001400 <gpioInit+0x16c>
		}
		else if(((GPIO_InitStruct->Mode) == GPIO_MODE_ALTFUNC_OD))	//Checking if output mode is Open Drain
 80013ce:	683b      	ldr	r3, [r7, #0]
 80013d0:	685b      	ldr	r3, [r3, #4]
 80013d2:	2b05      	cmp	r3, #5
 80013d4:	d114      	bne.n	8001400 <gpioInit+0x16c>
		{
			//Setting the GPIO to Open Drain
			REG_SET_VAL(GPIOx->OTYPER,0x1,0x1,GPIO_InitStruct->Pin);
 80013d6:	687b      	ldr	r3, [r7, #4]
 80013d8:	685b      	ldr	r3, [r3, #4]
 80013da:	683a      	ldr	r2, [r7, #0]
 80013dc:	6812      	ldr	r2, [r2, #0]
 80013de:	2101      	movs	r1, #1
 80013e0:	fa01 f202 	lsl.w	r2, r1, r2
 80013e4:	43d2      	mvns	r2, r2
 80013e6:	401a      	ands	r2, r3
 80013e8:	687b      	ldr	r3, [r7, #4]
 80013ea:	605a      	str	r2, [r3, #4]
 80013ec:	687b      	ldr	r3, [r7, #4]
 80013ee:	685b      	ldr	r3, [r3, #4]
 80013f0:	683a      	ldr	r2, [r7, #0]
 80013f2:	6812      	ldr	r2, [r2, #0]
 80013f4:	2101      	movs	r1, #1
 80013f6:	fa01 f202 	lsl.w	r2, r1, r2
 80013fa:	431a      	orrs	r2, r3
 80013fc:	687b      	ldr	r3, [r7, #4]
 80013fe:	605a      	str	r2, [r3, #4]
		}

		/******************** Configuring the Alternate Functionality *****************/
		if(GPIO_InitStruct->Pin <= 7)	//For GPIO PIN 0-7
 8001400:	683b      	ldr	r3, [r7, #0]
 8001402:	681b      	ldr	r3, [r3, #0]
 8001404:	2b07      	cmp	r3, #7
 8001406:	d818      	bhi.n	800143a <gpioInit+0x1a6>
		{
			//Configure the AFRL Register
			REG_SET_VAL(GPIOx->AFR[0],GPIO_InitStruct->Alternate,0xF,(4*(GPIO_InitStruct->Pin)));
 8001408:	687b      	ldr	r3, [r7, #4]
 800140a:	6a1b      	ldr	r3, [r3, #32]
 800140c:	683a      	ldr	r2, [r7, #0]
 800140e:	6812      	ldr	r2, [r2, #0]
 8001410:	0092      	lsls	r2, r2, #2
 8001412:	210f      	movs	r1, #15
 8001414:	fa01 f202 	lsl.w	r2, r1, r2
 8001418:	43d2      	mvns	r2, r2
 800141a:	401a      	ands	r2, r3
 800141c:	687b      	ldr	r3, [r7, #4]
 800141e:	621a      	str	r2, [r3, #32]
 8001420:	687b      	ldr	r3, [r7, #4]
 8001422:	6a1a      	ldr	r2, [r3, #32]
 8001424:	683b      	ldr	r3, [r7, #0]
 8001426:	6919      	ldr	r1, [r3, #16]
 8001428:	683b      	ldr	r3, [r7, #0]
 800142a:	681b      	ldr	r3, [r3, #0]
 800142c:	009b      	lsls	r3, r3, #2
 800142e:	fa01 f303 	lsl.w	r3, r1, r3
 8001432:	431a      	orrs	r2, r3
 8001434:	687b      	ldr	r3, [r7, #4]
 8001436:	621a      	str	r2, [r3, #32]
		if(GPIO_InitStruct->Pin <= 7)	//For GPIO PIN 0-7
 8001438:	e127      	b.n	800168a <gpioInit+0x3f6>
		}
		else	//For GPIO PIN 8-15
		{
			//Configure the AFRL Register
			REG_SET_VAL(GPIOx->AFR[1],GPIO_InitStruct->Alternate,0xF,(4*(GPIO_InitStruct->Pin)));
 800143a:	687b      	ldr	r3, [r7, #4]
 800143c:	6a5b      	ldr	r3, [r3, #36]	; 0x24
 800143e:	683a      	ldr	r2, [r7, #0]
 8001440:	6812      	ldr	r2, [r2, #0]
 8001442:	0092      	lsls	r2, r2, #2
 8001444:	210f      	movs	r1, #15
 8001446:	fa01 f202 	lsl.w	r2, r1, r2
 800144a:	43d2      	mvns	r2, r2
 800144c:	401a      	ands	r2, r3
 800144e:	687b      	ldr	r3, [r7, #4]
 8001450:	625a      	str	r2, [r3, #36]	; 0x24
 8001452:	687b      	ldr	r3, [r7, #4]
 8001454:	6a5a      	ldr	r2, [r3, #36]	; 0x24
 8001456:	683b      	ldr	r3, [r7, #0]
 8001458:	6919      	ldr	r1, [r3, #16]
 800145a:	683b      	ldr	r3, [r7, #0]
 800145c:	681b      	ldr	r3, [r3, #0]
 800145e:	009b      	lsls	r3, r3, #2
 8001460:	fa01 f303 	lsl.w	r3, r1, r3
 8001464:	431a      	orrs	r2, r3
 8001466:	687b      	ldr	r3, [r7, #4]
 8001468:	625a      	str	r2, [r3, #36]	; 0x24
		if(GPIO_InitStruct->Pin <= 7)	//For GPIO PIN 0-7
 800146a:	e10e      	b.n	800168a <gpioInit+0x3f6>
		}
	}
	else if(((GPIO_InitStruct->Mode) == GPIO_MODE_INPUT) || ((GPIO_InitStruct->Mode) == GPIO_MODE_IT_RISING) || ((GPIO_InitStruct->Mode) == GPIO_MODE_IT_FALLING) || ((GPIO_InitStruct->Mode) == GPIO_MODE_IT_RISING_FALLING))	//If the mode is Input
 800146c:	683b      	ldr	r3, [r7, #0]
 800146e:	685b      	ldr	r3, [r3, #4]
 8001470:	2b00      	cmp	r3, #0
 8001472:	d00c      	beq.n	800148e <gpioInit+0x1fa>
 8001474:	683b      	ldr	r3, [r7, #0]
 8001476:	685b      	ldr	r3, [r3, #4]
 8001478:	2b06      	cmp	r3, #6
 800147a:	d008      	beq.n	800148e <gpioInit+0x1fa>
 800147c:	683b      	ldr	r3, [r7, #0]
 800147e:	685b      	ldr	r3, [r3, #4]
 8001480:	2b07      	cmp	r3, #7
 8001482:	d004      	beq.n	800148e <gpioInit+0x1fa>
 8001484:	683b      	ldr	r3, [r7, #0]
 8001486:	685b      	ldr	r3, [r3, #4]
 8001488:	2b08      	cmp	r3, #8
 800148a:	f040 80e4 	bne.w	8001656 <gpioInit+0x3c2>
	{
		REG_SET_VAL(GPIOx->MODER,0x0,0x3,(2*(GPIO_InitStruct->Pin)));	//Setting the Mode to Input
 800148e:	687b      	ldr	r3, [r7, #4]
 8001490:	681b      	ldr	r3, [r3, #0]
 8001492:	683a      	ldr	r2, [r7, #0]
 8001494:	6812      	ldr	r2, [r2, #0]
 8001496:	0052      	lsls	r2, r2, #1
 8001498:	2103      	movs	r1, #3
 800149a:	fa01 f202 	lsl.w	r2, r1, r2
 800149e:	43d2      	mvns	r2, r2
 80014a0:	401a      	ands	r2, r3
 80014a2:	687b      	ldr	r3, [r7, #4]
 80014a4:	601a      	str	r2, [r3, #0]
 80014a6:	687b      	ldr	r3, [r7, #4]
 80014a8:	681a      	ldr	r2, [r3, #0]
 80014aa:	687b      	ldr	r3, [r7, #4]
 80014ac:	601a      	str	r2, [r3, #0]

		/***************** Configuring Interrupts **************************/
		if(((GPIO_InitStruct->Mode) == GPIO_MODE_IT_RISING) || ((GPIO_InitStruct->Mode) == GPIO_MODE_IT_FALLING) || ((GPIO_InitStruct->Mode) == GPIO_MODE_IT_RISING_FALLING))
 80014ae:	683b      	ldr	r3, [r7, #0]
 80014b0:	685b      	ldr	r3, [r3, #4]
 80014b2:	2b06      	cmp	r3, #6
 80014b4:	d008      	beq.n	80014c8 <gpioInit+0x234>
 80014b6:	683b      	ldr	r3, [r7, #0]
 80014b8:	685b      	ldr	r3, [r3, #4]
 80014ba:	2b07      	cmp	r3, #7
 80014bc:	d004      	beq.n	80014c8 <gpioInit+0x234>
 80014be:	683b      	ldr	r3, [r7, #0]
 80014c0:	685b      	ldr	r3, [r3, #4]
 80014c2:	2b08      	cmp	r3, #8
 80014c4:	f040 80e0 	bne.w	8001688 <gpioInit+0x3f4>
		{
			/*
			 * Configuring the Trigger Detection
			 */
			if(((GPIO_InitStruct->Mode) == GPIO_MODE_IT_RISING))	//If interrupt is for rising edge
 80014c8:	683b      	ldr	r3, [r7, #0]
 80014ca:	685b      	ldr	r3, [r3, #4]
 80014cc:	2b06      	cmp	r3, #6
 80014ce:	d117      	bne.n	8001500 <gpioInit+0x26c>
			{
				REG_SET_VAL(EXTI->RTSR,0x1,0x1,GPIO_InitStruct->Pin);	//Setting the bit inside the EXTI_RTSR Reg
 80014d0:	4b7d      	ldr	r3, [pc, #500]	; (80016c8 <gpioInit+0x434>)
 80014d2:	689b      	ldr	r3, [r3, #8]
 80014d4:	683a      	ldr	r2, [r7, #0]
 80014d6:	6812      	ldr	r2, [r2, #0]
 80014d8:	2101      	movs	r1, #1
 80014da:	fa01 f202 	lsl.w	r2, r1, r2
 80014de:	43d2      	mvns	r2, r2
 80014e0:	4611      	mov	r1, r2
 80014e2:	4a79      	ldr	r2, [pc, #484]	; (80016c8 <gpioInit+0x434>)
 80014e4:	400b      	ands	r3, r1
 80014e6:	6093      	str	r3, [r2, #8]
 80014e8:	4b77      	ldr	r3, [pc, #476]	; (80016c8 <gpioInit+0x434>)
 80014ea:	689b      	ldr	r3, [r3, #8]
 80014ec:	683a      	ldr	r2, [r7, #0]
 80014ee:	6812      	ldr	r2, [r2, #0]
 80014f0:	2101      	movs	r1, #1
 80014f2:	fa01 f202 	lsl.w	r2, r1, r2
 80014f6:	4611      	mov	r1, r2
 80014f8:	4a73      	ldr	r2, [pc, #460]	; (80016c8 <gpioInit+0x434>)
 80014fa:	430b      	orrs	r3, r1
 80014fc:	6093      	str	r3, [r2, #8]
 80014fe:	e04d      	b.n	800159c <gpioInit+0x308>
			}
			else if(((GPIO_InitStruct->Mode) == GPIO_MODE_IT_FALLING))	//If interrupt is for falling edge
 8001500:	683b      	ldr	r3, [r7, #0]
 8001502:	685b      	ldr	r3, [r3, #4]
 8001504:	2b07      	cmp	r3, #7
 8001506:	d117      	bne.n	8001538 <gpioInit+0x2a4>
			{
				REG_SET_VAL(EXTI->FTSR,0x1,0x1,GPIO_InitStruct->Pin);	//Setting the bit inside the EXTI_FTSR Reg
 8001508:	4b6f      	ldr	r3, [pc, #444]	; (80016c8 <gpioInit+0x434>)
 800150a:	68db      	ldr	r3, [r3, #12]
 800150c:	683a      	ldr	r2, [r7, #0]
 800150e:	6812      	ldr	r2, [r2, #0]
 8001510:	2101      	movs	r1, #1
 8001512:	fa01 f202 	lsl.w	r2, r1, r2
 8001516:	43d2      	mvns	r2, r2
 8001518:	4611      	mov	r1, r2
 800151a:	4a6b      	ldr	r2, [pc, #428]	; (80016c8 <gpioInit+0x434>)
 800151c:	400b      	ands	r3, r1
 800151e:	60d3      	str	r3, [r2, #12]
 8001520:	4b69      	ldr	r3, [pc, #420]	; (80016c8 <gpioInit+0x434>)
 8001522:	68db      	ldr	r3, [r3, #12]
 8001524:	683a      	ldr	r2, [r7, #0]
 8001526:	6812      	ldr	r2, [r2, #0]
 8001528:	2101      	movs	r1, #1
 800152a:	fa01 f202 	lsl.w	r2, r1, r2
 800152e:	4611      	mov	r1, r2
 8001530:	4a65      	ldr	r2, [pc, #404]	; (80016c8 <gpioInit+0x434>)
 8001532:	430b      	orrs	r3, r1
 8001534:	60d3      	str	r3, [r2, #12]
 8001536:	e031      	b.n	800159c <gpioInit+0x308>
			}
			else if(((GPIO_InitStruct->Mode) == GPIO_MODE_IT_RISING_FALLING))	//If interrupt is for both rising and falling
 8001538:	683b      	ldr	r3, [r7, #0]
 800153a:	685b      	ldr	r3, [r3, #4]
 800153c:	2b08      	cmp	r3, #8
 800153e:	d12d      	bne.n	800159c <gpioInit+0x308>
			{
				REG_SET_VAL(EXTI->RTSR,0x1,0x1,GPIO_InitStruct->Pin);	//Setting the bit inside the EXTI_RTSR Reg
 8001540:	4b61      	ldr	r3, [pc, #388]	; (80016c8 <gpioInit+0x434>)
 8001542:	689b      	ldr	r3, [r3, #8]
 8001544:	683a      	ldr	r2, [r7, #0]
 8001546:	6812      	ldr	r2, [r2, #0]
 8001548:	2101      	movs	r1, #1
 800154a:	fa01 f202 	lsl.w	r2, r1, r2
 800154e:	43d2      	mvns	r2, r2
 8001550:	4611      	mov	r1, r2
 8001552:	4a5d      	ldr	r2, [pc, #372]	; (80016c8 <gpioInit+0x434>)
 8001554:	400b      	ands	r3, r1
 8001556:	6093      	str	r3, [r2, #8]
 8001558:	4b5b      	ldr	r3, [pc, #364]	; (80016c8 <gpioInit+0x434>)
 800155a:	689b      	ldr	r3, [r3, #8]
 800155c:	683a      	ldr	r2, [r7, #0]
 800155e:	6812      	ldr	r2, [r2, #0]
 8001560:	2101      	movs	r1, #1
 8001562:	fa01 f202 	lsl.w	r2, r1, r2
 8001566:	4611      	mov	r1, r2
 8001568:	4a57      	ldr	r2, [pc, #348]	; (80016c8 <gpioInit+0x434>)
 800156a:	430b      	orrs	r3, r1
 800156c:	6093      	str	r3, [r2, #8]
				REG_SET_VAL(EXTI->FTSR,0x1,0x1,GPIO_InitStruct->Pin);	//Setting the bit inside the EXTI_FTSR Reg
 800156e:	4b56      	ldr	r3, [pc, #344]	; (80016c8 <gpioInit+0x434>)
 8001570:	68db      	ldr	r3, [r3, #12]
 8001572:	683a      	ldr	r2, [r7, #0]
 8001574:	6812      	ldr	r2, [r2, #0]
 8001576:	2101      	movs	r1, #1
 8001578:	fa01 f202 	lsl.w	r2, r1, r2
 800157c:	43d2      	mvns	r2, r2
 800157e:	4611      	mov	r1, r2
 8001580:	4a51      	ldr	r2, [pc, #324]	; (80016c8 <gpioInit+0x434>)
 8001582:	400b      	ands	r3, r1
 8001584:	60d3      	str	r3, [r2, #12]
 8001586:	4b50      	ldr	r3, [pc, #320]	; (80016c8 <gpioInit+0x434>)
 8001588:	68db      	ldr	r3, [r3, #12]
 800158a:	683a      	ldr	r2, [r7, #0]
 800158c:	6812      	ldr	r2, [r2, #0]
 800158e:	2101      	movs	r1, #1
 8001590:	fa01 f202 	lsl.w	r2, r1, r2
 8001594:	4611      	mov	r1, r2
 8001596:	4a4c      	ldr	r2, [pc, #304]	; (80016c8 <gpioInit+0x434>)
 8001598:	430b      	orrs	r3, r1
 800159a:	60d3      	str	r3, [r2, #12]
			 * This will tell the EXTI to listen from which port & pin and forward their interrupt
			 * to the NVIC.
			 *
			 */

			RCC_SYSCFG_CLOCK_ENABLE();	//Enabling the SYSCFG CLOCK
 800159c:	4b4b      	ldr	r3, [pc, #300]	; (80016cc <gpioInit+0x438>)
 800159e:	6c5b      	ldr	r3, [r3, #68]	; 0x44
 80015a0:	4a4a      	ldr	r2, [pc, #296]	; (80016cc <gpioInit+0x438>)
 80015a2:	f443 4380 	orr.w	r3, r3, #16384	; 0x4000
 80015a6:	6453      	str	r3, [r2, #68]	; 0x44
			uint8_t gpioPort;
			//Finding the Appropriate Port Value
			if(GPIOx == GPIOA)
 80015a8:	687b      	ldr	r3, [r7, #4]
 80015aa:	4a49      	ldr	r2, [pc, #292]	; (80016d0 <gpioInit+0x43c>)
 80015ac:	4293      	cmp	r3, r2
 80015ae:	d102      	bne.n	80015b6 <gpioInit+0x322>
			{
				gpioPort = 0x00;
 80015b0:	2300      	movs	r3, #0
 80015b2:	73fb      	strb	r3, [r7, #15]
 80015b4:	e01a      	b.n	80015ec <gpioInit+0x358>
			}
			else if(GPIOx == GPIOB)
 80015b6:	687b      	ldr	r3, [r7, #4]
 80015b8:	4a46      	ldr	r2, [pc, #280]	; (80016d4 <gpioInit+0x440>)
 80015ba:	4293      	cmp	r3, r2
 80015bc:	d102      	bne.n	80015c4 <gpioInit+0x330>
			{
				gpioPort = 0x01;
 80015be:	2301      	movs	r3, #1
 80015c0:	73fb      	strb	r3, [r7, #15]
 80015c2:	e013      	b.n	80015ec <gpioInit+0x358>
			}
			else if(GPIOx == GPIOC)
 80015c4:	687b      	ldr	r3, [r7, #4]
 80015c6:	4a44      	ldr	r2, [pc, #272]	; (80016d8 <gpioInit+0x444>)
 80015c8:	4293      	cmp	r3, r2
 80015ca:	d102      	bne.n	80015d2 <gpioInit+0x33e>
			{
				gpioPort = 0x02;
 80015cc:	2302      	movs	r3, #2
 80015ce:	73fb      	strb	r3, [r7, #15]
 80015d0:	e00c      	b.n	80015ec <gpioInit+0x358>
			}
			else if(GPIOx == GPIOD)
 80015d2:	687b      	ldr	r3, [r7, #4]
 80015d4:	4a41      	ldr	r2, [pc, #260]	; (80016dc <gpioInit+0x448>)
 80015d6:	4293      	cmp	r3, r2
 80015d8:	d102      	bne.n	80015e0 <gpioInit+0x34c>
			{
				gpioPort = 0x03;
 80015da:	2303      	movs	r3, #3
 80015dc:	73fb      	strb	r3, [r7, #15]
 80015de:	e005      	b.n	80015ec <gpioInit+0x358>
			}
			else if(GPIOx == GPIOE)
 80015e0:	687b      	ldr	r3, [r7, #4]
 80015e2:	4a3f      	ldr	r2, [pc, #252]	; (80016e0 <gpioInit+0x44c>)
 80015e4:	4293      	cmp	r3, r2
 80015e6:	d101      	bne.n	80015ec <gpioInit+0x358>
			{
				gpioPort = 0x04;
 80015e8:	2304      	movs	r3, #4
 80015ea:	73fb      	strb	r3, [r7, #15]
			}

			//Making changes in the SYSCFG EXTICR Register depending on the GPIO Pin Number
			if(GPIO_InitStruct->Pin >=0 || GPIO_InitStruct->Pin <= 3)
			{
				REG_SET_VAL(SYSCFG->EXTICR[0],gpioPort,0xF,(((GPIO_InitStruct->Pin) % 4) * 4));
 80015ec:	4b3d      	ldr	r3, [pc, #244]	; (80016e4 <gpioInit+0x450>)
 80015ee:	689b      	ldr	r3, [r3, #8]
 80015f0:	683a      	ldr	r2, [r7, #0]
 80015f2:	6812      	ldr	r2, [r2, #0]
 80015f4:	f002 0203 	and.w	r2, r2, #3
 80015f8:	0092      	lsls	r2, r2, #2
 80015fa:	210f      	movs	r1, #15
 80015fc:	fa01 f202 	lsl.w	r2, r1, r2
 8001600:	43d2      	mvns	r2, r2
 8001602:	4611      	mov	r1, r2
 8001604:	4a37      	ldr	r2, [pc, #220]	; (80016e4 <gpioInit+0x450>)
 8001606:	400b      	ands	r3, r1
 8001608:	6093      	str	r3, [r2, #8]
 800160a:	4b36      	ldr	r3, [pc, #216]	; (80016e4 <gpioInit+0x450>)
 800160c:	689b      	ldr	r3, [r3, #8]
 800160e:	7bf9      	ldrb	r1, [r7, #15]
 8001610:	683a      	ldr	r2, [r7, #0]
 8001612:	6812      	ldr	r2, [r2, #0]
 8001614:	f002 0203 	and.w	r2, r2, #3
 8001618:	0092      	lsls	r2, r2, #2
 800161a:	fa01 f202 	lsl.w	r2, r1, r2
 800161e:	4611      	mov	r1, r2
 8001620:	4a30      	ldr	r2, [pc, #192]	; (80016e4 <gpioInit+0x450>)
 8001622:	430b      	orrs	r3, r1
 8001624:	6093      	str	r3, [r2, #8]

			/*
			 * //Enabling the EXTI interrupt delivery using IMR
			 */

			REG_SET_VAL(EXTI->IMR,0x1,0x1,GPIO_InitStruct->Pin);
 8001626:	4b28      	ldr	r3, [pc, #160]	; (80016c8 <gpioInit+0x434>)
 8001628:	681b      	ldr	r3, [r3, #0]
 800162a:	683a      	ldr	r2, [r7, #0]
 800162c:	6812      	ldr	r2, [r2, #0]
 800162e:	2101      	movs	r1, #1
 8001630:	fa01 f202 	lsl.w	r2, r1, r2
 8001634:	43d2      	mvns	r2, r2
 8001636:	4611      	mov	r1, r2
 8001638:	4a23      	ldr	r2, [pc, #140]	; (80016c8 <gpioInit+0x434>)
 800163a:	400b      	ands	r3, r1
 800163c:	6013      	str	r3, [r2, #0]
 800163e:	4b22      	ldr	r3, [pc, #136]	; (80016c8 <gpioInit+0x434>)
 8001640:	681b      	ldr	r3, [r3, #0]
 8001642:	683a      	ldr	r2, [r7, #0]
 8001644:	6812      	ldr	r2, [r2, #0]
 8001646:	2101      	movs	r1, #1
 8001648:	fa01 f202 	lsl.w	r2, r1, r2
 800164c:	4611      	mov	r1, r2
 800164e:	4a1e      	ldr	r2, [pc, #120]	; (80016c8 <gpioInit+0x434>)
 8001650:	430b      	orrs	r3, r1
 8001652:	6013      	str	r3, [r2, #0]
		if(((GPIO_InitStruct->Mode) == GPIO_MODE_IT_RISING) || ((GPIO_InitStruct->Mode) == GPIO_MODE_IT_FALLING) || ((GPIO_InitStruct->Mode) == GPIO_MODE_IT_RISING_FALLING))
 8001654:	e018      	b.n	8001688 <gpioInit+0x3f4>
		}
	}
	else	//The mode will Analog
	{
		REG_SET_VAL(GPIOx->MODER,GPIO_InitStruct->Mode,0x3,(2*(GPIO_InitStruct->Pin)));
 8001656:	687b      	ldr	r3, [r7, #4]
 8001658:	681b      	ldr	r3, [r3, #0]
 800165a:	683a      	ldr	r2, [r7, #0]
 800165c:	6812      	ldr	r2, [r2, #0]
 800165e:	0052      	lsls	r2, r2, #1
 8001660:	2103      	movs	r1, #3
 8001662:	fa01 f202 	lsl.w	r2, r1, r2
 8001666:	43d2      	mvns	r2, r2
 8001668:	401a      	ands	r2, r3
 800166a:	687b      	ldr	r3, [r7, #4]
 800166c:	601a      	str	r2, [r3, #0]
 800166e:	687b      	ldr	r3, [r7, #4]
 8001670:	681a      	ldr	r2, [r3, #0]
 8001672:	683b      	ldr	r3, [r7, #0]
 8001674:	6859      	ldr	r1, [r3, #4]
 8001676:	683b      	ldr	r3, [r7, #0]
 8001678:	681b      	ldr	r3, [r3, #0]
 800167a:	005b      	lsls	r3, r3, #1
 800167c:	fa01 f303 	lsl.w	r3, r1, r3
 8001680:	431a      	orrs	r2, r3
 8001682:	687b      	ldr	r3, [r7, #4]
 8001684:	601a      	str	r2, [r3, #0]
 8001686:	e000      	b.n	800168a <gpioInit+0x3f6>
		if(((GPIO_InitStruct->Mode) == GPIO_MODE_IT_RISING) || ((GPIO_InitStruct->Mode) == GPIO_MODE_IT_FALLING) || ((GPIO_InitStruct->Mode) == GPIO_MODE_IT_RISING_FALLING))
 8001688:	bf00      	nop
	}

	/****************** Configuring Pull-up or Pull-down ************************/
	REG_SET_VAL(GPIOx->PUPDR,GPIO_InitStruct->Pull,0x3,(2*(GPIO_InitStruct->Pin)));
 800168a:	687b      	ldr	r3, [r7, #4]
 800168c:	68db      	ldr	r3, [r3, #12]
 800168e:	683a      	ldr	r2, [r7, #0]
 8001690:	6812      	ldr	r2, [r2, #0]
 8001692:	0052      	lsls	r2, r2, #1
 8001694:	2103      	movs	r1, #3
 8001696:	fa01 f202 	lsl.w	r2, r1, r2
 800169a:	43d2      	mvns	r2, r2
 800169c:	401a      	ands	r2, r3
 800169e:	687b      	ldr	r3, [r7, #4]
 80016a0:	60da      	str	r2, [r3, #12]
 80016a2:	687b      	ldr	r3, [r7, #4]
 80016a4:	68da      	ldr	r2, [r3, #12]
 80016a6:	683b      	ldr	r3, [r7, #0]
 80016a8:	6899      	ldr	r1, [r3, #8]
 80016aa:	683b      	ldr	r3, [r7, #0]
 80016ac:	681b      	ldr	r3, [r3, #0]
 80016ae:	005b      	lsls	r3, r3, #1
 80016b0:	fa01 f303 	lsl.w	r3, r1, r3
 80016b4:	431a      	orrs	r2, r3
 80016b6:	687b      	ldr	r3, [r7, #4]
 80016b8:	60da      	str	r2, [r3, #12]
}
 80016ba:	bf00      	nop
 80016bc:	3714      	adds	r7, #20
 80016be:	46bd      	mov	sp, r7
 80016c0:	f85d 7b04 	ldr.w	r7, [sp], #4
 80016c4:	4770      	bx	lr
 80016c6:	bf00      	nop
 80016c8:	40013c00 	.word	0x40013c00
 80016cc:	40023800 	.word	0x40023800
 80016d0:	40020000 	.word	0x40020000
 80016d4:	40020400 	.word	0x40020400
 80016d8:	40020800 	.word	0x40020800
 80016dc:	40020c00 	.word	0x40020c00
 80016e0:	40021000 	.word	0x40021000
 80016e4:	40013800 	.word	0x40013800

080016e8 <__NVIC_EnableIRQ>:
  \details Enables a device specific interrupt in the NVIC interrupt controller.
  \param [in]      IRQn  Device specific interrupt number.
  \note    IRQn must not be negative.
 */
__STATIC_INLINE void __NVIC_EnableIRQ(IRQn_Type IRQn)
{
 80016e8:	b480      	push	{r7}
 80016ea:	b083      	sub	sp, #12
 80016ec:	af00      	add	r7, sp, #0
 80016ee:	4603      	mov	r3, r0
 80016f0:	71fb      	strb	r3, [r7, #7]
  if ((int32_t)(IRQn) >= 0)
 80016f2:	f997 3007 	ldrsb.w	r3, [r7, #7]
 80016f6:	2b00      	cmp	r3, #0
 80016f8:	db0b      	blt.n	8001712 <__NVIC_EnableIRQ+0x2a>
  {
    __COMPILER_BARRIER();
    NVIC->ISER[(((uint32_t)IRQn) >> 5UL)] = (uint32_t)(1UL << (((uint32_t)IRQn) & 0x1FUL));
 80016fa:	79fb      	ldrb	r3, [r7, #7]
 80016fc:	f003 021f 	and.w	r2, r3, #31
 8001700:	4907      	ldr	r1, [pc, #28]	; (8001720 <__NVIC_EnableIRQ+0x38>)
 8001702:	f997 3007 	ldrsb.w	r3, [r7, #7]
 8001706:	095b      	lsrs	r3, r3, #5
 8001708:	2001      	movs	r0, #1
 800170a:	fa00 f202 	lsl.w	r2, r0, r2
 800170e:	f841 2023 	str.w	r2, [r1, r3, lsl #2]
    __COMPILER_BARRIER();
  }
}
 8001712:	bf00      	nop
 8001714:	370c      	adds	r7, #12
 8001716:	46bd      	mov	sp, r7
 8001718:	f85d 7b04 	ldr.w	r7, [sp], #4
 800171c:	4770      	bx	lr
 800171e:	bf00      	nop
 8001720:	e000e100 	.word	0xe000e100

08001724 <__NVIC_SetPriority>:
  \param [in]      IRQn  Interrupt number.
  \param [in]  priority  Priority to set.
  \note    The priority cannot be set for every processor exception.
 */
__STATIC_INLINE void __NVIC_SetPriority(IRQn_Type IRQn, uint32_t priority)
{
 8001724:	b480      	push	{r7}
 8001726:	b083      	sub	sp, #12
 8001728:	af00      	add	r7, sp, #0
 800172a:	4603      	mov	r3, r0
 800172c:	6039      	str	r1, [r7, #0]
 800172e:	71fb      	strb	r3, [r7, #7]
  if ((int32_t)(IRQn) >= 0)
 8001730:	f997 3007 	ldrsb.w	r3, [r7, #7]
 8001734:	2b00      	cmp	r3, #0
 8001736:	db0a      	blt.n	800174e <__NVIC_SetPriority+0x2a>
  {
    NVIC->IP[((uint32_t)IRQn)]               = (uint8_t)((priority << (8U - __NVIC_PRIO_BITS)) & (uint32_t)0xFFUL);
 8001738:	683b      	ldr	r3, [r7, #0]
 800173a:	b2da      	uxtb	r2, r3
 800173c:	490c      	ldr	r1, [pc, #48]	; (8001770 <__NVIC_SetPriority+0x4c>)
 800173e:	f997 3007 	ldrsb.w	r3, [r7, #7]
 8001742:	0112      	lsls	r2, r2, #4
 8001744:	b2d2      	uxtb	r2, r2
 8001746:	440b      	add	r3, r1
 8001748:	f883 2300 	strb.w	r2, [r3, #768]	; 0x300
  }
  else
  {
    SCB->SHP[(((uint32_t)IRQn) & 0xFUL)-4UL] = (uint8_t)((priority << (8U - __NVIC_PRIO_BITS)) & (uint32_t)0xFFUL);
  }
}
 800174c:	e00a      	b.n	8001764 <__NVIC_SetPriority+0x40>
    SCB->SHP[(((uint32_t)IRQn) & 0xFUL)-4UL] = (uint8_t)((priority << (8U - __NVIC_PRIO_BITS)) & (uint32_t)0xFFUL);
 800174e:	683b      	ldr	r3, [r7, #0]
 8001750:	b2da      	uxtb	r2, r3
 8001752:	4908      	ldr	r1, [pc, #32]	; (8001774 <__NVIC_SetPriority+0x50>)
 8001754:	79fb      	ldrb	r3, [r7, #7]
 8001756:	f003 030f 	and.w	r3, r3, #15
 800175a:	3b04      	subs	r3, #4
 800175c:	0112      	lsls	r2, r2, #4
 800175e:	b2d2      	uxtb	r2, r2
 8001760:	440b      	add	r3, r1
 8001762:	761a      	strb	r2, [r3, #24]
}
 8001764:	bf00      	nop
 8001766:	370c      	adds	r7, #12
 8001768:	46bd      	mov	sp, r7
 800176a:	f85d 7b04 	ldr.w	r7, [sp], #4
 800176e:	4770      	bx	lr
 8001770:	e000e100 	.word	0xe000e100
 8001774:	e000ed00 	.word	0xe000ed00

08001778 <delay>:
 *
 * RETURN		:	void
 *
 * **************************************************************************/
void delay(uint32_t Delay)
{
 8001778:	b580      	push	{r7, lr}
 800177a:	b084      	sub	sp, #16
 800177c:	af00      	add	r7, sp, #0
 800177e:	6078      	str	r0, [r7, #4]
	uint32_t ticksStart = getTicks();
 8001780:	f000 f854 	bl	800182c <getTicks>
 8001784:	60f8      	str	r0, [r7, #12]

	while((getTicks() - ticksStart) < Delay);	//Waiting until ms is less than Delay
 8001786:	bf00      	nop
 8001788:	f000 f850 	bl	800182c <getTicks>
 800178c:	4602      	mov	r2, r0
 800178e:	68fb      	ldr	r3, [r7, #12]
 8001790:	1ad3      	subs	r3, r2, r3
 8001792:	687a      	ldr	r2, [r7, #4]
 8001794:	429a      	cmp	r2, r3
 8001796:	d8f7      	bhi.n	8001788 <delay+0x10>
}
 8001798:	bf00      	nop
 800179a:	bf00      	nop
 800179c:	3710      	adds	r7, #16
 800179e:	46bd      	mov	sp, r7
 80017a0:	bd80      	pop	{r7, pc}
	...

080017a4 <systickInit>:
 *
 * RETURN		:	void
 *
 * **************************************************************************/
void systickInit(void)
{
 80017a4:	b5b0      	push	{r4, r5, r7, lr}
 80017a6:	b084      	sub	sp, #16
 80017a8:	af00      	add	r7, sp, #0
	uint32_t sysClkFreq = 0;
 80017aa:	2300      	movs	r3, #0
 80017ac:	60fb      	str	r3, [r7, #12]
	uint64_t reloadValue = 0;
 80017ae:	f04f 0200 	mov.w	r2, #0
 80017b2:	f04f 0300 	mov.w	r3, #0
 80017b6:	e9c7 2300 	strd	r2, r3, [r7]

	sysClkFreq = RCC_GetSysClockFreq();
 80017ba:	f7ff faf1 	bl	8000da0 <RCC_GetSysClockFreq>
 80017be:	60f8      	str	r0, [r7, #12]

	//reloadValue = System Clock / 1000 for 1 ms Delay
	reloadValue = (sysClkFreq / 1000) - 1;
 80017c0:	68fb      	ldr	r3, [r7, #12]
 80017c2:	4a18      	ldr	r2, [pc, #96]	; (8001824 <systickInit+0x80>)
 80017c4:	fba2 2303 	umull	r2, r3, r2, r3
 80017c8:	099b      	lsrs	r3, r3, #6
 80017ca:	3b01      	subs	r3, #1
 80017cc:	2200      	movs	r2, #0
 80017ce:	461c      	mov	r4, r3
 80017d0:	4615      	mov	r5, r2
 80017d2:	e9c7 4500 	strd	r4, r5, [r7]

	//Setting the Reload Value of Systick
	MODIFY_REG(SysTick->LOAD, SysTick_LOAD_RELOAD_Msk, reloadValue);
 80017d6:	4b14      	ldr	r3, [pc, #80]	; (8001828 <systickInit+0x84>)
 80017d8:	685b      	ldr	r3, [r3, #4]
 80017da:	f003 427f 	and.w	r2, r3, #4278190080	; 0xff000000
 80017de:	683b      	ldr	r3, [r7, #0]
 80017e0:	4911      	ldr	r1, [pc, #68]	; (8001828 <systickInit+0x84>)
 80017e2:	4313      	orrs	r3, r2
 80017e4:	604b      	str	r3, [r1, #4]

	//Selecting the clock source of systick
	SET_BIT(SysTick->CTRL,SysTick_CTRL_CLKSOURCE_Msk);
 80017e6:	4b10      	ldr	r3, [pc, #64]	; (8001828 <systickInit+0x84>)
 80017e8:	681b      	ldr	r3, [r3, #0]
 80017ea:	4a0f      	ldr	r2, [pc, #60]	; (8001828 <systickInit+0x84>)
 80017ec:	f043 0304 	orr.w	r3, r3, #4
 80017f0:	6013      	str	r3, [r2, #0]

	//Enabling the Systick exceptions
	SET_BIT(SysTick->CTRL,SysTick_CTRL_TICKINT_Msk);
 80017f2:	4b0d      	ldr	r3, [pc, #52]	; (8001828 <systickInit+0x84>)
 80017f4:	681b      	ldr	r3, [r3, #0]
 80017f6:	4a0c      	ldr	r2, [pc, #48]	; (8001828 <systickInit+0x84>)
 80017f8:	f043 0302 	orr.w	r3, r3, #2
 80017fc:	6013      	str	r3, [r2, #0]

	//Setting the Interrupt Priority
	NVIC_SetPriority(SysTick_IRQn,0);
 80017fe:	2100      	movs	r1, #0
 8001800:	f04f 30ff 	mov.w	r0, #4294967295
 8001804:	f7ff ff8e 	bl	8001724 <__NVIC_SetPriority>

	//Enabling the Interrupt
	NVIC_EnableIRQ(SysTick_IRQn);
 8001808:	f04f 30ff 	mov.w	r0, #4294967295
 800180c:	f7ff ff6c 	bl	80016e8 <__NVIC_EnableIRQ>

	//Enabling the systick
	SET_BIT(SysTick->CTRL,SysTick_CTRL_ENABLE_Msk);
 8001810:	4b05      	ldr	r3, [pc, #20]	; (8001828 <systickInit+0x84>)
 8001812:	681b      	ldr	r3, [r3, #0]
 8001814:	4a04      	ldr	r2, [pc, #16]	; (8001828 <systickInit+0x84>)
 8001816:	f043 0301 	orr.w	r3, r3, #1
 800181a:	6013      	str	r3, [r2, #0]
}
 800181c:	bf00      	nop
 800181e:	3710      	adds	r7, #16
 8001820:	46bd      	mov	sp, r7
 8001822:	bdb0      	pop	{r4, r5, r7, pc}
 8001824:	10624dd3 	.word	0x10624dd3
 8001828:	e000e010 	.word	0xe000e010

0800182c <getTicks>:
 *
 * RETURN		:	uint32_t current tick values
 *
 * **************************************************************************/
uint32_t getTicks(void)
{
 800182c:	b480      	push	{r7}
 800182e:	af00      	add	r7, sp, #0
	return current_ticks;
 8001830:	4b03      	ldr	r3, [pc, #12]	; (8001840 <getTicks+0x14>)
 8001832:	681b      	ldr	r3, [r3, #0]
}
 8001834:	4618      	mov	r0, r3
 8001836:	46bd      	mov	sp, r7
 8001838:	f85d 7b04 	ldr.w	r7, [sp], #4
 800183c:	4770      	bx	lr
 800183e:	bf00      	nop
 8001840:	2000001c 	.word	0x2000001c

08001844 <SysTick_Handler>:
 *
 * RETURN		:	void
 *
 * **************************************************************************/
void SysTick_Handler(void)
{
 8001844:	b480      	push	{r7}
 8001846:	af00      	add	r7, sp, #0
	current_ticks++;	//Incrementing ms variable every 1 ms
 8001848:	4b04      	ldr	r3, [pc, #16]	; (800185c <SysTick_Handler+0x18>)
 800184a:	681b      	ldr	r3, [r3, #0]
 800184c:	3301      	adds	r3, #1
 800184e:	4a03      	ldr	r2, [pc, #12]	; (800185c <SysTick_Handler+0x18>)
 8001850:	6013      	str	r3, [r2, #0]
}
 8001852:	bf00      	nop
 8001854:	46bd      	mov	sp, r7
 8001856:	f85d 7b04 	ldr.w	r7, [sp], #4
 800185a:	4770      	bx	lr
 800185c:	2000001c 	.word	0x2000001c

08001860 <ErrorHandler>:
 *
 * RETURN		:	void
 *
 * **************************************************************************/
void ErrorHandler(void)
{
 8001860:	b480      	push	{r7}
 8001862:	af00      	add	r7, sp, #0

}
 8001864:	bf00      	nop
 8001866:	46bd      	mov	sp, r7
 8001868:	f85d 7b04 	ldr.w	r7, [sp], #4
 800186c:	4770      	bx	lr
	...

08001870 <main>:

SPI_Handle_t spiHandleStruct = {0};
GPIO_Init_t gpioInitStrcut = {0};

int main(void)
{
 8001870:	b580      	push	{r7, lr}
 8001872:	b084      	sub	sp, #16
 8001874:	af04      	add	r7, sp, #16
	systemClockConfig();
 8001876:	f000 f869 	bl	800194c <systemClockConfig>

	systickInit();
 800187a:	f7ff ff93 	bl	80017a4 <systickInit>

	lcdConfig();
 800187e:	f000 f8ab 	bl	80019d8 <lcdConfig>

	lcdInit(&spiHandleStruct);
 8001882:	482a      	ldr	r0, [pc, #168]	; (800192c <main+0xbc>)
 8001884:	f7fe fca8 	bl	80001d8 <lcdInit>

	//Setting the Background
	lcdFill(&spiHandleStruct, BG);
 8001888:	f64e 714c 	movw	r1, #61260	; 0xef4c
 800188c:	4827      	ldr	r0, [pc, #156]	; (800192c <main+0xbc>)
 800188e:	f7fe ff0f 	bl	80006b0 <lcdFill>

	//Displaying the Time
	lcdWriteString(&spiHandleStruct, "9:30" , (Font_Handler_t*)Arial24x24_t, BLACK, 2, 10, 10);
 8001892:	230a      	movs	r3, #10
 8001894:	9302      	str	r3, [sp, #8]
 8001896:	230a      	movs	r3, #10
 8001898:	9301      	str	r3, [sp, #4]
 800189a:	2302      	movs	r3, #2
 800189c:	9300      	str	r3, [sp, #0]
 800189e:	2300      	movs	r3, #0
 80018a0:	4a23      	ldr	r2, [pc, #140]	; (8001930 <main+0xc0>)
 80018a2:	4924      	ldr	r1, [pc, #144]	; (8001934 <main+0xc4>)
 80018a4:	4821      	ldr	r0, [pc, #132]	; (800192c <main+0xbc>)
 80018a6:	f7fe ffdb 	bl	8000860 <lcdWriteString>

	//Displaying Network
	lcdWriteArea(&spiHandleStruct, (uint8_t*)full_network, 1152, 179, 202, 10, 33);
 80018aa:	2321      	movs	r3, #33	; 0x21
 80018ac:	9302      	str	r3, [sp, #8]
 80018ae:	230a      	movs	r3, #10
 80018b0:	9301      	str	r3, [sp, #4]
 80018b2:	23ca      	movs	r3, #202	; 0xca
 80018b4:	9300      	str	r3, [sp, #0]
 80018b6:	23b3      	movs	r3, #179	; 0xb3
 80018b8:	f44f 6290 	mov.w	r2, #1152	; 0x480
 80018bc:	491e      	ldr	r1, [pc, #120]	; (8001938 <main+0xc8>)
 80018be:	481b      	ldr	r0, [pc, #108]	; (800192c <main+0xbc>)
 80018c0:	f7fe fec2 	bl	8000648 <lcdWriteArea>
	lcdWriteArea(&spiHandleStruct, (uint8_t*)battery_box, 1536, 209, 240, 10, 33);
 80018c4:	2321      	movs	r3, #33	; 0x21
 80018c6:	9302      	str	r3, [sp, #8]
 80018c8:	230a      	movs	r3, #10
 80018ca:	9301      	str	r3, [sp, #4]
 80018cc:	23f0      	movs	r3, #240	; 0xf0
 80018ce:	9300      	str	r3, [sp, #0]
 80018d0:	23d1      	movs	r3, #209	; 0xd1
 80018d2:	f44f 62c0 	mov.w	r2, #1536	; 0x600
 80018d6:	4919      	ldr	r1, [pc, #100]	; (800193c <main+0xcc>)
 80018d8:	4814      	ldr	r0, [pc, #80]	; (800192c <main+0xbc>)
 80018da:	f7fe feb5 	bl	8000648 <lcdWriteArea>

	//Displaying Battery
	lcdWriteArea(&spiHandleStruct, (uint8_t*)battery_100, 1000, 211, 235, 12, 31);	//Battery less than 100%
 80018de:	231f      	movs	r3, #31
 80018e0:	9302      	str	r3, [sp, #8]
 80018e2:	230c      	movs	r3, #12
 80018e4:	9301      	str	r3, [sp, #4]
 80018e6:	23eb      	movs	r3, #235	; 0xeb
 80018e8:	9300      	str	r3, [sp, #0]
 80018ea:	23d3      	movs	r3, #211	; 0xd3
 80018ec:	f44f 727a 	mov.w	r2, #1000	; 0x3e8
 80018f0:	4913      	ldr	r1, [pc, #76]	; (8001940 <main+0xd0>)
 80018f2:	480e      	ldr	r0, [pc, #56]	; (800192c <main+0xbc>)
 80018f4:	f7fe fea8 	bl	8000648 <lcdWriteArea>
	lcdWriteString(&spiHandleStruct, "100%" , (Font_Handler_t*)Arial24x24_t, BLACK, 2, 245, 10);
 80018f8:	230a      	movs	r3, #10
 80018fa:	9302      	str	r3, [sp, #8]
 80018fc:	23f5      	movs	r3, #245	; 0xf5
 80018fe:	9301      	str	r3, [sp, #4]
 8001900:	2302      	movs	r3, #2
 8001902:	9300      	str	r3, [sp, #0]
 8001904:	2300      	movs	r3, #0
 8001906:	4a0a      	ldr	r2, [pc, #40]	; (8001930 <main+0xc0>)
 8001908:	490e      	ldr	r1, [pc, #56]	; (8001944 <main+0xd4>)
 800190a:	4808      	ldr	r0, [pc, #32]	; (800192c <main+0xbc>)
 800190c:	f7fe ffa8 	bl	8000860 <lcdWriteString>

	//Displaying Enter Number
	lcdWriteString(&spiHandleStruct, "ENTER NUMBER", (Font_Handler_t*)Arial24x24_t, BLACK, 3, 10, 100);
 8001910:	2364      	movs	r3, #100	; 0x64
 8001912:	9302      	str	r3, [sp, #8]
 8001914:	230a      	movs	r3, #10
 8001916:	9301      	str	r3, [sp, #4]
 8001918:	2303      	movs	r3, #3
 800191a:	9300      	str	r3, [sp, #0]
 800191c:	2300      	movs	r3, #0
 800191e:	4a04      	ldr	r2, [pc, #16]	; (8001930 <main+0xc0>)
 8001920:	4909      	ldr	r1, [pc, #36]	; (8001948 <main+0xd8>)
 8001922:	4802      	ldr	r0, [pc, #8]	; (800192c <main+0xbc>)
 8001924:	f7fe ff9c 	bl	8000860 <lcdWriteString>

	while(1)
 8001928:	e7fe      	b.n	8001928 <main+0xb8>
 800192a:	bf00      	nop
 800192c:	20000020 	.word	0x20000020
 8001930:	08003628 	.word	0x08003628
 8001934:	08001b80 	.word	0x08001b80
 8001938:	080044a8 	.word	0x080044a8
 800193c:	08004928 	.word	0x08004928
 8001940:	08004f28 	.word	0x08004f28
 8001944:	08001b88 	.word	0x08001b88
 8001948:	08001b90 	.word	0x08001b90

0800194c <systemClockConfig>:

	}
}

void systemClockConfig(void)
{
 800194c:	b580      	push	{r7, lr}
 800194e:	b08e      	sub	sp, #56	; 0x38
 8001950:	af00      	add	r7, sp, #0
	 * System Clock = 168Mhz
	 * AHB Clock Speed = 168Mhz
	 * APB1 Clock Speed = 42Mhz
	 * APB2 Clock Speed = 84Mhz
	 */
	RCC_OscInit_t RCC_OscInitStruct = {0};
 8001952:	f107 0318 	add.w	r3, r7, #24
 8001956:	2220      	movs	r2, #32
 8001958:	2100      	movs	r1, #0
 800195a:	4618      	mov	r0, r3
 800195c:	f000 f8d7 	bl	8001b0e <memset>

	RCC_OscInitStruct.oscillatorType = RCC_OSCILLATOR_TYPE_HSE | RCC_OSCILLATOR_TYPE_PLL;
 8001960:	230a      	movs	r3, #10
 8001962:	61bb      	str	r3, [r7, #24]
	RCC_OscInitStruct.hseState = RCC_HSE_ON;
 8001964:	f44f 3380 	mov.w	r3, #65536	; 0x10000
 8001968:	623b      	str	r3, [r7, #32]
	RCC_OscInitStruct.pll.pllSource = RCC_PLL_SOURCE_HSE;
 800196a:	f44f 0380 	mov.w	r3, #4194304	; 0x400000
 800196e:	62bb      	str	r3, [r7, #40]	; 0x28
	RCC_OscInitStruct.pll.pllState = RCC_PLL_ON;
 8001970:	f04f 7380 	mov.w	r3, #16777216	; 0x1000000
 8001974:	627b      	str	r3, [r7, #36]	; 0x24
	RCC_OscInitStruct.pll.pllM = 8U;
 8001976:	2308      	movs	r3, #8
 8001978:	62fb      	str	r3, [r7, #44]	; 0x2c
	RCC_OscInitStruct.pll.pllN = 336U;
 800197a:	f44f 73a8 	mov.w	r3, #336	; 0x150
 800197e:	633b      	str	r3, [r7, #48]	; 0x30
	RCC_OscInitStruct.pll.pllP = RCC_PLLP_DIV2;
 8001980:	2302      	movs	r3, #2
 8001982:	637b      	str	r3, [r7, #52]	; 0x34

	if(RCC_OscillatorConfig(&RCC_OscInitStruct) != HAL_OK)
 8001984:	f107 0318 	add.w	r3, r7, #24
 8001988:	4618      	mov	r0, r3
 800198a:	f7ff f84b 	bl	8000a24 <RCC_OscillatorConfig>
 800198e:	4603      	mov	r3, r0
 8001990:	2b00      	cmp	r3, #0
 8001992:	d001      	beq.n	8001998 <systemClockConfig+0x4c>
	{
		ErrorHandler();
 8001994:	f7ff ff64 	bl	8001860 <ErrorHandler>
	}

	RCC_ClkInit_t RCC_ClkInitStruct = {0};
 8001998:	1d3b      	adds	r3, r7, #4
 800199a:	2200      	movs	r2, #0
 800199c:	601a      	str	r2, [r3, #0]
 800199e:	605a      	str	r2, [r3, #4]
 80019a0:	609a      	str	r2, [r3, #8]
 80019a2:	60da      	str	r2, [r3, #12]
 80019a4:	611a      	str	r2, [r3, #16]

	RCC_ClkInitStruct.clockType = RCC_CLOCKTYPE_SYSCLK | RCC_CLOCKTYPE_PCLK1 | RCC_CLOCKTYPE_PCLK2;
 80019a6:	230d      	movs	r3, #13
 80019a8:	607b      	str	r3, [r7, #4]
	RCC_ClkInitStruct.sysClkSource = RCC_SYSCLKSOURCE_PLL;
 80019aa:	2302      	movs	r3, #2
 80019ac:	60bb      	str	r3, [r7, #8]
	RCC_ClkInitStruct.apb1ClkDivider = RCC_CFGR_PPRE1_DIV4;
 80019ae:	f44f 53a0 	mov.w	r3, #5120	; 0x1400
 80019b2:	613b      	str	r3, [r7, #16]
	RCC_ClkInitStruct.apb2ClkDivider = RCC_CFGR_PPRE2_DIV2;
 80019b4:	f44f 4300 	mov.w	r3, #32768	; 0x8000
 80019b8:	617b      	str	r3, [r7, #20]

	if(RCC_ClockConfig(&RCC_ClkInitStruct,FLASH_ACR_LATENCY_5WS) != HAL_OK)
 80019ba:	1d3b      	adds	r3, r7, #4
 80019bc:	2105      	movs	r1, #5
 80019be:	4618      	mov	r0, r3
 80019c0:	f7ff f92a 	bl	8000c18 <RCC_ClockConfig>
 80019c4:	4603      	mov	r3, r0
 80019c6:	2b00      	cmp	r3, #0
 80019c8:	d001      	beq.n	80019ce <systemClockConfig+0x82>
	{
		ErrorHandler();
 80019ca:	f7ff ff49 	bl	8001860 <ErrorHandler>
	}
}
 80019ce:	bf00      	nop
 80019d0:	3738      	adds	r7, #56	; 0x38
 80019d2:	46bd      	mov	sp, r7
 80019d4:	bd80      	pop	{r7, pc}
	...

080019d8 <lcdConfig>:


void lcdConfig(void)
{
 80019d8:	b580      	push	{r7, lr}
 80019da:	b086      	sub	sp, #24
 80019dc:	af00      	add	r7, sp, #0
	/****************Configuring the GPIO Pins as Alternate Function***************/
	RCC_GPIOA_CLOCK_ENABLE();
 80019de:	4b33      	ldr	r3, [pc, #204]	; (8001aac <lcdConfig+0xd4>)
 80019e0:	6b1b      	ldr	r3, [r3, #48]	; 0x30
 80019e2:	4a32      	ldr	r2, [pc, #200]	; (8001aac <lcdConfig+0xd4>)
 80019e4:	f043 0301 	orr.w	r3, r3, #1
 80019e8:	6313      	str	r3, [r2, #48]	; 0x30

	GPIO_Init_t gpioInitStruct = {0};
 80019ea:	1d3b      	adds	r3, r7, #4
 80019ec:	2200      	movs	r2, #0
 80019ee:	601a      	str	r2, [r3, #0]
 80019f0:	605a      	str	r2, [r3, #4]
 80019f2:	609a      	str	r2, [r3, #8]
 80019f4:	60da      	str	r2, [r3, #12]
 80019f6:	611a      	str	r2, [r3, #16]

	gpioInitStruct.Mode = GPIO_MODE_ALTFUNC_PUSHPULL;
 80019f8:	2304      	movs	r3, #4
 80019fa:	60bb      	str	r3, [r7, #8]
	gpioInitStruct.Pull = GPIO_NOPULL;
 80019fc:	2300      	movs	r3, #0
 80019fe:	60fb      	str	r3, [r7, #12]
	gpioInitStruct.Alternate = GPIO_AF5;
 8001a00:	2305      	movs	r3, #5
 8001a02:	617b      	str	r3, [r7, #20]

	//SCK 	---> PA5
	gpioInitStruct.Pin = LCD_SCK_PIN;
 8001a04:	2305      	movs	r3, #5
 8001a06:	607b      	str	r3, [r7, #4]
	gpioInit(LCD_SCK_PORT,&gpioInitStruct);
 8001a08:	1d3b      	adds	r3, r7, #4
 8001a0a:	4619      	mov	r1, r3
 8001a0c:	4828      	ldr	r0, [pc, #160]	; (8001ab0 <lcdConfig+0xd8>)
 8001a0e:	f7ff fc41 	bl	8001294 <gpioInit>

	//MISO ---> PA6
	gpioInitStruct.Pin = LCD_MISO_PIN;
 8001a12:	2306      	movs	r3, #6
 8001a14:	607b      	str	r3, [r7, #4]
	gpioInit(LCD_MISO_PORT,&gpioInitStruct);
 8001a16:	1d3b      	adds	r3, r7, #4
 8001a18:	4619      	mov	r1, r3
 8001a1a:	4825      	ldr	r0, [pc, #148]	; (8001ab0 <lcdConfig+0xd8>)
 8001a1c:	f7ff fc3a 	bl	8001294 <gpioInit>

	//MOSI ---> PA7
	gpioInitStruct.Pin = LCD_MOSI_PIN;
 8001a20:	2307      	movs	r3, #7
 8001a22:	607b      	str	r3, [r7, #4]
	gpioInit(LCD_MOSI_PORT,&gpioInitStruct);
 8001a24:	1d3b      	adds	r3, r7, #4
 8001a26:	4619      	mov	r1, r3
 8001a28:	4821      	ldr	r0, [pc, #132]	; (8001ab0 <lcdConfig+0xd8>)
 8001a2a:	f7ff fc33 	bl	8001294 <gpioInit>

	gpioInitStruct.Mode = GPIO_MODE_OUTPUT_PUSHPULL;
 8001a2e:	2302      	movs	r3, #2
 8001a30:	60bb      	str	r3, [r7, #8]
	gpioInitStruct.Pull = GPIO_NOPULL;
 8001a32:	2300      	movs	r3, #0
 8001a34:	60fb      	str	r3, [r7, #12]
	gpioInitStruct.Speed = GPIO_SPEED_LOW;
 8001a36:	2300      	movs	r3, #0
 8001a38:	613b      	str	r3, [r7, #16]
	gpioInitStruct.Alternate = 0;
 8001a3a:	2300      	movs	r3, #0
 8001a3c:	617b      	str	r3, [r7, #20]

	//CSX ---> PA4
	gpioInitStruct.Pin = LCD_CSX_PIN;
 8001a3e:	2304      	movs	r3, #4
 8001a40:	607b      	str	r3, [r7, #4]
	gpioInit(LCD_CSX_PORT, &gpioInitStruct);
 8001a42:	1d3b      	adds	r3, r7, #4
 8001a44:	4619      	mov	r1, r3
 8001a46:	481a      	ldr	r0, [pc, #104]	; (8001ab0 <lcdConfig+0xd8>)
 8001a48:	f7ff fc24 	bl	8001294 <gpioInit>

	//DCX ---> PA2
	gpioInitStruct.Pin = LCD_DCX_PIN;
 8001a4c:	2302      	movs	r3, #2
 8001a4e:	607b      	str	r3, [r7, #4]
	gpioInit(LCD_DCX_PORT, &gpioInitStruct);
 8001a50:	1d3b      	adds	r3, r7, #4
 8001a52:	4619      	mov	r1, r3
 8001a54:	4816      	ldr	r0, [pc, #88]	; (8001ab0 <lcdConfig+0xd8>)
 8001a56:	f7ff fc1d 	bl	8001294 <gpioInit>

	//RESX ---> PA3
	gpioInitStruct.Pin = LCD_RESX_PIN;
 8001a5a:	2303      	movs	r3, #3
 8001a5c:	607b      	str	r3, [r7, #4]
	gpioInit(LCD_RESX_PORT, &gpioInitStruct);
 8001a5e:	1d3b      	adds	r3, r7, #4
 8001a60:	4619      	mov	r1, r3
 8001a62:	4813      	ldr	r0, [pc, #76]	; (8001ab0 <lcdConfig+0xd8>)
 8001a64:	f7ff fc16 	bl	8001294 <gpioInit>

	/****************Configuring the SPI as Full Duplex Master*************************/
	spiHandleStruct.SPIx = SPI1;
 8001a68:	4b12      	ldr	r3, [pc, #72]	; (8001ab4 <lcdConfig+0xdc>)
 8001a6a:	4a13      	ldr	r2, [pc, #76]	; (8001ab8 <lcdConfig+0xe0>)
 8001a6c:	601a      	str	r2, [r3, #0]
	spiHandleStruct.Init.Mode = SPI_MODE_MASTER;
 8001a6e:	4b11      	ldr	r3, [pc, #68]	; (8001ab4 <lcdConfig+0xdc>)
 8001a70:	2201      	movs	r2, #1
 8001a72:	605a      	str	r2, [r3, #4]
	spiHandleStruct.Init.Direction = SPI_DIRECTION_2LINE;
 8001a74:	4b0f      	ldr	r3, [pc, #60]	; (8001ab4 <lcdConfig+0xdc>)
 8001a76:	2200      	movs	r2, #0
 8001a78:	609a      	str	r2, [r3, #8]
	spiHandleStruct.Init.DataSize = SPI_DATA_SIZE_8BIT;
 8001a7a:	4b0e      	ldr	r3, [pc, #56]	; (8001ab4 <lcdConfig+0xdc>)
 8001a7c:	2200      	movs	r2, #0
 8001a7e:	60da      	str	r2, [r3, #12]
	spiHandleStruct.Init.CLKPolarity = SPI_POLARITY_LOW;
 8001a80:	4b0c      	ldr	r3, [pc, #48]	; (8001ab4 <lcdConfig+0xdc>)
 8001a82:	2200      	movs	r2, #0
 8001a84:	611a      	str	r2, [r3, #16]
	spiHandleStruct.Init.CLKPhase = SPI_PHASE_1EDGE;
 8001a86:	4b0b      	ldr	r3, [pc, #44]	; (8001ab4 <lcdConfig+0xdc>)
 8001a88:	2200      	movs	r2, #0
 8001a8a:	615a      	str	r2, [r3, #20]
	spiHandleStruct.Init.NSS = SPI_NSS_SOFTWARE;
 8001a8c:	4b09      	ldr	r3, [pc, #36]	; (8001ab4 <lcdConfig+0xdc>)
 8001a8e:	2201      	movs	r2, #1
 8001a90:	619a      	str	r2, [r3, #24]
	spiHandleStruct.Init.BaudRatePrescaler = SPI_BAUDRATE_PRESCALAR_2;
 8001a92:	4b08      	ldr	r3, [pc, #32]	; (8001ab4 <lcdConfig+0xdc>)
 8001a94:	2200      	movs	r2, #0
 8001a96:	61da      	str	r2, [r3, #28]
	spiHandleStruct.Init.FirstBit = SPI_MSB_FIRST;
 8001a98:	4b06      	ldr	r3, [pc, #24]	; (8001ab4 <lcdConfig+0xdc>)
 8001a9a:	2200      	movs	r2, #0
 8001a9c:	621a      	str	r2, [r3, #32]

	spiInit(&spiHandleStruct);
 8001a9e:	4805      	ldr	r0, [pc, #20]	; (8001ab4 <lcdConfig+0xdc>)
 8001aa0:	f7ff fa96 	bl	8000fd0 <spiInit>
}
 8001aa4:	bf00      	nop
 8001aa6:	3718      	adds	r7, #24
 8001aa8:	46bd      	mov	sp, r7
 8001aaa:	bd80      	pop	{r7, pc}
 8001aac:	40023800 	.word	0x40023800
 8001ab0:	40020000 	.word	0x40020000
 8001ab4:	20000020 	.word	0x20000020
 8001ab8:	40013000 	.word	0x40013000

08001abc <Reset_Handler>:

  .section .text.Reset_Handler
  .weak Reset_Handler
  .type Reset_Handler, %function
Reset_Handler:
  ldr   r0, =_estack
 8001abc:	480d      	ldr	r0, [pc, #52]	; (8001af4 <LoopForever+0x2>)
  mov   sp, r0          /* set stack pointer */
 8001abe:	4685      	mov	sp, r0
/* Call the clock system initialization function.*/
  bl  SystemInit
 8001ac0:	f3af 8000 	nop.w

/* Copy the data segment initializers from flash to SRAM */
  ldr r0, =_sdata
 8001ac4:	480c      	ldr	r0, [pc, #48]	; (8001af8 <LoopForever+0x6>)
  ldr r1, =_edata
 8001ac6:	490d      	ldr	r1, [pc, #52]	; (8001afc <LoopForever+0xa>)
  ldr r2, =_sidata
 8001ac8:	4a0d      	ldr	r2, [pc, #52]	; (8001b00 <LoopForever+0xe>)
  movs r3, #0
 8001aca:	2300      	movs	r3, #0
  b LoopCopyDataInit
 8001acc:	e002      	b.n	8001ad4 <LoopCopyDataInit>

08001ace <CopyDataInit>:

CopyDataInit:
  ldr r4, [r2, r3]
 8001ace:	58d4      	ldr	r4, [r2, r3]
  str r4, [r0, r3]
 8001ad0:	50c4      	str	r4, [r0, r3]
  adds r3, r3, #4
 8001ad2:	3304      	adds	r3, #4

08001ad4 <LoopCopyDataInit>:

LoopCopyDataInit:
  adds r4, r0, r3
 8001ad4:	18c4      	adds	r4, r0, r3
  cmp r4, r1
 8001ad6:	428c      	cmp	r4, r1
  bcc CopyDataInit
 8001ad8:	d3f9      	bcc.n	8001ace <CopyDataInit>

/* Zero fill the bss segment. */
  ldr r2, =_sbss
 8001ada:	4a0a      	ldr	r2, [pc, #40]	; (8001b04 <LoopForever+0x12>)
  ldr r4, =_ebss
 8001adc:	4c0a      	ldr	r4, [pc, #40]	; (8001b08 <LoopForever+0x16>)
  movs r3, #0
 8001ade:	2300      	movs	r3, #0
  b LoopFillZerobss
 8001ae0:	e001      	b.n	8001ae6 <LoopFillZerobss>

08001ae2 <FillZerobss>:

FillZerobss:
  str  r3, [r2]
 8001ae2:	6013      	str	r3, [r2, #0]
  adds r2, r2, #4
 8001ae4:	3204      	adds	r2, #4

08001ae6 <LoopFillZerobss>:

LoopFillZerobss:
  cmp r2, r4
 8001ae6:	42a2      	cmp	r2, r4
  bcc FillZerobss
 8001ae8:	d3fb      	bcc.n	8001ae2 <FillZerobss>

/* Call static constructors */
  bl __libc_init_array
 8001aea:	f000 f819 	bl	8001b20 <__libc_init_array>
/* Call the application's entry point.*/
  bl main
 8001aee:	f7ff febf 	bl	8001870 <main>

08001af2 <LoopForever>:

LoopForever:
  b LoopForever
 8001af2:	e7fe      	b.n	8001af2 <LoopForever>
  ldr   r0, =_estack
 8001af4:	20020000 	.word	0x20020000
  ldr r0, =_sdata
 8001af8:	20000000 	.word	0x20000000
  ldr r1, =_edata
 8001afc:	20000000 	.word	0x20000000
  ldr r2, =_sidata
 8001b00:	08005318 	.word	0x08005318
  ldr r2, =_sbss
 8001b04:	20000000 	.word	0x20000000
  ldr r4, =_ebss
 8001b08:	20000058 	.word	0x20000058

08001b0c <ADC_IRQHandler>:
 * @retval : None
*/
  .section .text.Default_Handler,"ax",%progbits
Default_Handler:
Infinite_Loop:
  b Infinite_Loop
 8001b0c:	e7fe      	b.n	8001b0c <ADC_IRQHandler>

08001b0e <memset>:
 8001b0e:	4402      	add	r2, r0
 8001b10:	4603      	mov	r3, r0
 8001b12:	4293      	cmp	r3, r2
 8001b14:	d100      	bne.n	8001b18 <memset+0xa>
 8001b16:	4770      	bx	lr
 8001b18:	f803 1b01 	strb.w	r1, [r3], #1
 8001b1c:	e7f9      	b.n	8001b12 <memset+0x4>
	...

08001b20 <__libc_init_array>:
 8001b20:	b570      	push	{r4, r5, r6, lr}
 8001b22:	4d0d      	ldr	r5, [pc, #52]	; (8001b58 <__libc_init_array+0x38>)
 8001b24:	4c0d      	ldr	r4, [pc, #52]	; (8001b5c <__libc_init_array+0x3c>)
 8001b26:	1b64      	subs	r4, r4, r5
 8001b28:	10a4      	asrs	r4, r4, #2
 8001b2a:	2600      	movs	r6, #0
 8001b2c:	42a6      	cmp	r6, r4
 8001b2e:	d109      	bne.n	8001b44 <__libc_init_array+0x24>
 8001b30:	4d0b      	ldr	r5, [pc, #44]	; (8001b60 <__libc_init_array+0x40>)
 8001b32:	4c0c      	ldr	r4, [pc, #48]	; (8001b64 <__libc_init_array+0x44>)
 8001b34:	f000 f818 	bl	8001b68 <_init>
 8001b38:	1b64      	subs	r4, r4, r5
 8001b3a:	10a4      	asrs	r4, r4, #2
 8001b3c:	2600      	movs	r6, #0
 8001b3e:	42a6      	cmp	r6, r4
 8001b40:	d105      	bne.n	8001b4e <__libc_init_array+0x2e>
 8001b42:	bd70      	pop	{r4, r5, r6, pc}
 8001b44:	f855 3b04 	ldr.w	r3, [r5], #4
 8001b48:	4798      	blx	r3
 8001b4a:	3601      	adds	r6, #1
 8001b4c:	e7ee      	b.n	8001b2c <__libc_init_array+0xc>
 8001b4e:	f855 3b04 	ldr.w	r3, [r5], #4
 8001b52:	4798      	blx	r3
 8001b54:	3601      	adds	r6, #1
 8001b56:	e7f2      	b.n	8001b3e <__libc_init_array+0x1e>
 8001b58:	08005310 	.word	0x08005310
 8001b5c:	08005310 	.word	0x08005310
 8001b60:	08005310 	.word	0x08005310
 8001b64:	08005314 	.word	0x08005314

08001b68 <_init>:
 8001b68:	b5f8      	push	{r3, r4, r5, r6, r7, lr}
 8001b6a:	bf00      	nop
 8001b6c:	bcf8      	pop	{r3, r4, r5, r6, r7}
 8001b6e:	bc08      	pop	{r3}
 8001b70:	469e      	mov	lr, r3
 8001b72:	4770      	bx	lr

08001b74 <_fini>:
 8001b74:	b5f8      	push	{r3, r4, r5, r6, r7, lr}
 8001b76:	bf00      	nop
 8001b78:	bcf8      	pop	{r3, r4, r5, r6, r7}
 8001b7a:	bc08      	pop	{r3}
 8001b7c:	469e      	mov	lr, r3
 8001b7e:	4770      	bx	lr
